(dp0
S'310324006'
p1
S'<!DOCTYPE html PUBLIC "-//W3C//DTD XHTML 1.0 Transitional//EN"\n\t"http://www.w3.org/TR/xhtml1/DTD/xhtml1-transitional.dtd">\n<html xmlns="http://www.w3.org/1999/xhtml" xmlns:fb="http://www.facebook.com/2008/fbml">\n<head>\n<meta http-equiv="Content-type" content="text/html; charset=utf-8" />\n<title>Minnesota Timberwolves vs. Dallas Mavericks - Box Score - March 24, 2011 - ESPN</title>\n<meta name="google-site-verification" content="xuj1ODRluWa0frM-BjIr_aSHoUC7HB5C1MgmYAM_GkA" />\n<meta name="msvalidate.01" content="980DAC91C6458F6FA90F7089E61D12B0" />\n<meta name="googlebot" content="noodp" />\n<meta name="robots" content="index, follow" />\n<meta name="description" content="NBA Basketball Box Score: Final statistics from the Minnesota Timberwolves vs. Dallas Mavericks game played on March 24, 2011" />\n<meta name="keywords" content="nba basketball Box Score, Minnesota stats, Dallas stats" />\n<link rel="canonical" href="/nba/http://espn.go.com/nba/boxscore/_/id/310324006/minnesota-timberwolves-vs-dallas-mavericks" />\n<link rel="search" type="application/opensearchdescription+xml" href="http://a.espncdn.com/search/opensearch.xml" title="ESPN Search" />\n<link rel="stylesheet" href="http://a.espncdn.com/combiner/c/201201160807?css=global_reset.r1.css,base.r236.css,modules.r444.css,global_header.r42.css,modules/global_nav.r48.css,modules/insider_enhanced.200910131831.css,mem2010/mem.r5.css,mem2010/mem_espn360.r2.css,registration/facebook.button.v2.css,warvertical12e.css,twin.css,universal_overlay/universal_overlay.css,universal_overlay/media_overlay.css,universal_overlay/video_overlay.css,universal_overlay/photo_overlay.css,universal_overlay/dyk_overlay.css" type="text/css" media="screen" charset="utf-8" />\n<link rel="stylesheet" href="http://a.espncdn.com/combiner/c?css=espn.teams.r4l.css" type="text/css" media="screen" charset="utf-8" />\n<link rel="stylesheet" href="http://a.espncdn.com/combiner/c?v=201111301331&css=/espn/espn/styles/gamepackage10/ootCSS,/espn/espn/styles/gamepackage10/gamepackage10CSS,/espn/espn/styles/gamepackage10/gamepackage10moduleCSS,/espn/espn/styles/teamSprites/nbaSpriteCSS" type="text/css" media="screen" charset="utf-8" />\n<link rel="stylesheet" href="http://a.espncdn.com/prod/styles/playerpopup1.css" type="text/css" media="screen" charset="utf-8" />\n<script src="http://a.espncdn.com/combiner/c?js=jquery-1.7.1.js,plugins/json2.r3.js,plugins/teacrypt.js,plugins/jquery.metadata.js,plugins/jquery.bgiframe.r3.js,plugins/jquery.easing.1.3.js,plugins/jquery.hoverIntent.js,plugins/jquery.jcarousel.js,plugins/jquery.tinysort.r4.js,plugins/jquery.pubsub.r5.js,ui/1.8.16/jquery.ui.core.js,ui/1.8.16/jquery.ui.widget.js,ui/1.8.16/jquery.ui.tabs.js,ui/1.8.16/jquery.ui.accordion.js,plugins/ba-debug-0.4.js,espn.l10n.r12.js,swfobject/2.2/swfobject.js,flashObjWrapper.r7.js,plugins/jquery.colorbox.1.3.14.js,plugins/jquery.ba-postmessage.js,espn.core.duo.r54.js,espn.mem.r27.js,stub.search.r9.js,espn.nav.mega.r33.js,espn.storage.r6.js,espn.p13n.r15.js,espn.video.r57.js,registration/staticLogin.r10-26.js,espn.universal.overlay.r8.js,insider/espn.insider.201112021227.js,espn.espn360.stub.r9.js,espn.myHeadlines.stub.r13.js,espn.myfaves.stub.r3.js,tsscoreboard.20090612.js,%2Fforesee%2Fv7%2Fforesee-alive.js,ie9pinning.r3.js,playerpopup.r12.js"></script>\n<script>espn.core.navVersion = \'a\';</script>\n<script type="text/javascript" src="http://a.espncdn.com/prod/scripts/mbox.20.js"></script>\n\n\t<script language="javascript">\n\tvar ad_site = \'espn.us.com.nba\';\n\tvar ad_zone = \'nbaboxscore\';\n\tvar ad_kvps = \'pgtyp=nbaboxscore;sp=nba;\';\n\tvar ad_swid = \'\';\n\tvar ad_counter = 1;\n\tvar ad_ord = Math.floor(Math.random()*9999999999);\n\tvar ad_seg = \'\';\n\n\t\n\t\tad_swid = jQuery.cookie(\'SWID\');\n\t\tif(typeof espn.core.ad_segments == \'function\') {\n\t\t\tad_seg = espn.core.ad_segments();\n\t\t\tif (ad_seg != null && ad_seg != \'\') {\n\t\t\t\tad_kvps = ad_kvps + ad_seg\n\t\t\t}\n\t\t}\n\t\n\n\t// the u\n\tvar ad_u = \'u=pgtyp=nbaboxscore|sp=nba\';\n\tvar ad_seg_u = ad_seg;\n\tif (ad_swid != null && ad_swid != \'\') {\n\t\tif (ad_swid.length > 54) {\n\t\t\tad_swid = ad_swid.substring(0,54);\n\t\t}\n\t\tad_newu = \'u=swid=\'+ad_swid+\'|\';\n\t\tad_u = ad_u.replace(\'u=\',ad_newu);\n\t}\n\tif (ad_seg_u != null && ad_seg_u != \'\') {\n\t\twhile(ad_seg_u.indexOf(\';\')!=-1) {\n\t\t\tad_seg_u = ad_seg_u.replace(\';\',\'|\');\n\t\t}\n\t\tad_u = ad_u + \'|\' + ad_seg_u;\n\t}\n\tad_u = ad_u + \';\';\n\tif (ad_u.length > 255) {\n\t\tad_u = ad_u.substring(0,254);\n\t}\n\t</script>\n\t</head>\n<body class="game-package nba {sportId:46}" >\n<div class="mboxDefault"></div><script></script><!--[if IE 6]><div class="ie ie6"><![endif]-->\n<!--[if IE 7]><div class="ie ie7"><![endif]-->\n<!--[if IE 8]><div class="ie ie8"><![endif]-->\n<!-- begin bg-elements -->\n<div class="bg-elements">\n<!-- begin header -->\n<div id="header" class="container">\n<!-- begin top-bar -->\n<div class="top-bar">\n<!-- begin uni login -->\n<script type="text/javascript">\nvar returnURL = document.location.href;\nvar anCV = "";\nvar myEspnText = {\'welcometext\':\'Welcome\',\'register\':\'Register\',\'signin\':\'Sign In\',\'signout\':\'Sign Out\',\'heliumdown\':\'Login Temporarily Unavailable\',\'connectedfacebook\':\'Connected to Facebook\',\'connectfacebook\':\'Connect with Facebook\',\'activateinsider\':\'Activate Insider\'};\n</script>\n<form id="form-memberarea">\n<input type="hidden" name="language" id="language" value="en"/>\n<input type="hidden" name="affiliateName" id="memberAreaAffiliateName" value="espn"/>\n<input type="hidden" name="regFormId" id="regFormId" value="espn"/>\n</form>\n<div class="signin" id="signin"></div>\n<script>espn.memberservices.welcome();</script>\n<div class="nav-edition editions">\n<label>EDITIONS:</label>\n<ul class="main">\n\t<li class="e-usa active"><a href="http://espn.go.com/" name="&amp;lpos=editionsnav&amp;lid=usa">USA</a></li>\n\t<li class="e-deportes"><a href="http://espndeportes.espn.go.com/" name="&amp;lpos=editionsnav&amp;lid=deportes">DEPORTES</a></li>\n\t<li class="last dropdown">\n\t<ul class="">\n\t<li class="selected">More</li>\n\t<li><a href="http://www.espnstar.com/" name="&amp;lpos=editionsnav&amp;lid=asia">Asia</a></li>\n\t<li><a href="http://www.espn.com.au" name="&amp;lpos=editionsnav&amp;lid=australia">Australia</a></li>\n\t<li><a href="http://www.espn.com.br" name="&amp;lpos=editionsnav&amp;lid=brazil">Brazil</a></li>\n\t<li><a href="http://www.espn.co.uk/" name="&amp;lpos=editionsnav&amp;lid=uk">United Kingdom</a></li>\n\t</ul>\n\t</li>\n</ul>\n</div>\n\n<div class="nav-edition">\n<label>CITIES:</label>\n<ul class="main">\n\t<li class="e-boston"><a href="http://espn.go.com/boston/" name="&amp;lpos=citynav&amp;lid=boston">BOSTON</a></li>\n\t<li class="e-chicago"><a href="http://espn.go.com/chicago/" name="&amp;lpos=citynav&amp;lid=chicago">CHICAGO</a></li>\n\t<li class="e-dallas"><a href="http://espn.go.com/dallas/" name="&amp;lpos=citynav&amp;lid=dallas">DALLAS</a></li>\n\t<li class="e-losangeles"><a href="http://espn.go.com/los-angeles/" name="&amp;lpos=citynav&amp;lid=losangeles">LOS ANGELES</a></li>\n\t<li class="last e-newyork"><a href="http://espn.go.com/new-york/" name="&amp;lpos=citynav&amp;lid=newyork">NEW YORK</a></li>\n</ul>\n</div>\n</div>\n<!-- end top-bar -->\n<!-- begin espn-logo -->\n<div class="espn-logo">\n<h1>\n<a href="http://espn.go.com/" class="espn">ESPN</a> <a href="http://espn.go.com/nba/" class="section-title">NBA</a></h1>\n</div>\n<!-- end espn-logo -->\n<!-- begin ad -->\n<span class="presby">\n\t\t\t<!-- begin ad tag -->\n\t\t\t<script language="JavaScript" type="text/javascript">\n\t\t\tif (typeof ad_kvps != \'undefined\' && typeof ad_u != \'undefined\' && typeof ad_counter != \'undefined\' && typeof ad_ord != \'undefined\') {\n\t\t\t\tif (typeof ad_site == \'undefined\' || typeof ad_zone == \'undefined\') {\n\t\t\t\t\tvar ad_site = \'espn.us.com.nba\';\n\t\t\t\t\tvar ad_zone = \'nbaboxscore\';\n\t\t\t\t}\n\t\t\t\tvar ad_finalString = \'http://ad.Doubleclick.net/adj/\'+ad_site+\'/\'+ad_zone+\';\' +ad_kvps+ \'pos=SponsoredByLogoHeader;\' +ad_u+ \'sz=150x45,1x1;tile=\' +ad_counter+ \';ord=\' +ad_ord;\n\t\t\t\tdocument.write(\'<scr\'+\'ipt src=\'+ad_finalString+\'></scr\'+\'ipt>\');\n\t\t\t\tad_counter++;\n\t\t\t}\n\t\t\t</script>\n\t\t\t<noscript>\n\t\t\t<a href="http://ad.Doubleclick.net/jump/espn.us.com.nba/nbaboxscore;sz=150x45,1x1;" target="_blank">\n\t\t\t<img src="http://ad.Doubleclick.net/ad/espn.us.com.nba/nbaboxscore;sz=150x45,1x1;" border="0" alt="">\n\t\t\t</a>\n\t\t\t</noscript>\n\t\t\t<!-- end ad tag -->\n\t\t\t</span>\n<!-- end ad -->\n\t  <div id="shop">\n\t  \t<a class="shop-btn" href="http://espnshop.com/entry.point?target=Z&amp;source=ESPN_HPHEADERLINK:SHOPBUTTONHEADER:6_1_10" name="&lpos=sitenavdefault&lid=sitenav_shopbutton">Shop</a>\n\t  </div>\n\t  <style>.ie6 #searchBox, .ie6 #searchBox div { display: inline; } </style><!-- begin search -->\n<div id="nav-main-search">\n<form id="searchBox" name="searchBox" action="http://search.espn.go.com/results" method="get" accept-charset="utf-8" style="color: #999999;">\n<div class="clearfix">\n<input autocomplete="off" class="text" type="text" placeholder="Search" name="searchString" id="searchString" />\n<input type="hidden" name="page" id="page" value="null" />\n<input type="hidden" name="fromForm" value="true" />\n<input class="submit" type="submit" value="" />\n</div>\n</form>\n</div>\n<!-- end search -->\n</div>\n<!-- end header -->\n\n\t\t\t<!-- begin ad tag -->\n\t\t\t<script language="JavaScript" type="text/javascript">\n\t\t\tif (typeof ad_kvps != \'undefined\' && typeof ad_u != \'undefined\' && typeof ad_counter != \'undefined\' && typeof ad_ord != \'undefined\') {\n\t\t\t\tif (typeof ad_site == \'undefined\' || typeof ad_zone == \'undefined\') {\n\t\t\t\t\tvar ad_site = \'espn.us.com.nba\';\n\t\t\t\t\tvar ad_zone = \'nbaboxscore\';\n\t\t\t\t}\n\t\t\t\tvar ad_finalString = \'http://ad.Doubleclick.net/adj/\'+ad_site+\'/\'+ad_zone+\';\' +ad_kvps+ \'pos=Background_Skin;\' +ad_u+ \'sz=1280x946,200x800,1x1;tile=\' +ad_counter+ \';ord=\' +ad_ord;\n\t\t\t\tdocument.write(\'<scr\'+\'ipt src=\'+ad_finalString+\'></scr\'+\'ipt>\');\n\t\t\t\tad_counter++;\n\t\t\t}\n\t\t\t</script>\n\t\t\t<noscript>\n\t\t\t<a href="http://ad.Doubleclick.net/jump/espn.us.com.nba/nbaboxscore;sz=1280x946,200x800,1x1;" target="_blank">\n\t\t\t<img src="http://ad.Doubleclick.net/ad/espn.us.com.nba/nbaboxscore;sz=1280x946,200x800,1x1;" border="0" alt="">\n\t\t\t</a>\n\t\t\t</noscript>\n\t\t\t<!-- end ad tag -->\n\t\t\t<!-- begin subheader -->\n<div id="subheader">\n<!-- begin content -->\n<div id="content-wrapper">\n<div id="ad-top" class="container">\n<!-- begin Banner ad -->\n<div class="span-6 ad banner top"><div class="ad-center"><div class="ad-wrapper">\n\t\t\t<!-- begin ad tag -->\n\t\t\t<script language="JavaScript" type="text/javascript">\n\t\t\tif (typeof ad_kvps != \'undefined\' && typeof ad_u != \'undefined\' && typeof ad_counter != \'undefined\' && typeof ad_ord != \'undefined\') {\n\t\t\t\tif (typeof ad_site == \'undefined\' || typeof ad_zone == \'undefined\') {\n\t\t\t\t\tvar ad_site = \'espn.us.com.nba\';\n\t\t\t\t\tvar ad_zone = \'nbaboxscore\';\n\t\t\t\t}\n\t\t\t\tvar ad_finalString = \'http://ad.Doubleclick.net/adj/\'+ad_site+\'/\'+ad_zone+\';\' +ad_kvps+ \'pos=Banner;\' +ad_u+ \'sz=728x90,970x66,924x50,1x1;tile=\' +ad_counter+ \';ord=\' +ad_ord;\n\t\t\t\tdocument.write(\'<scr\'+\'ipt src=\'+ad_finalString+\'></scr\'+\'ipt>\');\n\t\t\t\tad_counter++;\n\t\t\t}\n\t\t\t</script>\n\t\t\t<noscript>\n\t\t\t<a href="http://ad.Doubleclick.net/jump/espn.us.com.nba/nbaboxscore;sz=728x90,970x66,924x50,1x1;" target="_blank">\n\t\t\t<img src="http://ad.Doubleclick.net/ad/espn.us.com.nba/nbaboxscore;sz=728x90,970x66,924x50,1x1;" border="0" alt="">\n\t\t\t</a>\n\t\t\t</noscript>\n\t\t\t<!-- end ad tag -->\n\t\t\t</div></div></div>\n<!-- end Banner ad -->\n</div>\n<div id="content" class="container">\n<!--[if lte IE 6]><link rel="stylesheet" charset="utf-8" media="screen" href="http://a.espncdn.com/combiner/c?css=modules/browser-alert.r7.css" type="text/css" /><div class="span-6" id="browser-alert-wrapper" style="display:none;"><div class="mod-container mod-no-header-footer browser-alert"><div class="mod-content"><div class="gradient-container"><h1><span>Your Web Browser</span> is no longer supported</h1><p>To experience everything that ESPN.com has to offer, we recommend that you upgrade to a newer version of your web browser. Click the upgrade button to the right or <a href="http://espn.go.com/espn/news/story?id=5630562">learn more</a>.</p><ul><li><a class="btn-upgrade" href="http://www.microsoft.com/windows/internet-explorer/default.aspx">Upgrade</a></li><li><a class="btn-faq" href="http://espn.go.com/espn/news/story?id=5630562">FAQs</a></li></ul></div></div></div></div><script>(function(b){setTimeout(function(){var a=b("#browser-alert-wrapper");if(espn.cookie.get("browseralert")!="true"){b(\'<a class="btn-close" href="#">Close</a>\').bind("click",function(){a.hide();espn.cookie.set("browseralert","true",30);return false}).appendTo(a.find(".gradient-container"));a.show();espn.cookie.set("browseralert","true")}},100)})(jQuery);</script><![endif]--><div class="span-6">\n\n<div class="scoreboard-strip-wrapper" style="height:61px; width:916px;">\n\t<div class="scoreboard-strip" id="ootScoreboard">\n\t\t<div id="ootShadow"></div>\n\n\t\t<div class="scoreboard-title-hq">\n\t\t\t\n\n\t\t\t\t<div class="subhead">\n\n\t\t\t\t\t<span>\n\t\t\t\t\t\t<a name="&lpos=nbaGamePackageOOT&lid=scoreLinkOOT" href="/nba/scoreboard?date=20110324">Scores for Mar 24, 2011</a>\n\t\t\t\t\t</span>\n\n\t\t\t\t</div>\n\n\t\t\t\n\t\t</div>\n\n\t\t<div class="scoreboard-container" id="scoreboard2" style="width:auto !important;  margin-left: 210px !important">\n\t\t\t<div class="container">\n\t\t\t\t<div style="display: block;" class="jcarousel-prev jcarousel-next-horizontal oot-prev"></div>\n\t\t\t\t<div style="display: block;" class="jcarousel-next jcarousel-next-horizontal oot-next"></div>\n\t\t\t\t<div class="mod-content  mod-content-hq">\n\t\t\t\t\t<div id="nba-scores" class="scores-carousel {note:\'THERE ARE NO NBA GAMES TODAY\'} ui-tabs-panel ui-widget-content ui-corner-bottom">\n\t\t\t\t\t\t<ul>\n\t\t\t\t\t\t\t<li id="nba-310324006"><!-- url: http://espn.go.com/nba/boxscore --><a name="&lpos=nbaGamePackageOOT&lid=gameLinkOOT" href="http://espn.go.com/nba/boxscore?gameId=310324006" class="ootLink"><div class="game final" ><div class="game-status final "><div class="game-left"><span class="status">Final</span><span class="hidden-clock"></span></div><div class="game-right"><span class="clock"></span></div>&nbsp;</div><div class="clear"></div><div class="game-left"><div class="info home-winner"></div><div class="teams"><span class="away">MIN</span><br/><span class="home">DAL</span></div><div class="hidden-scores"><span class="away">96</span><br/><span class="home">104</span></div><div class="scores"><span class="away">96</span><br/><span class="home">104</span></div></div><div class="clear"></div><span class="sort">0</span></div></a></li><li id="nba-310324026"><!-- url: http://espn.go.com/nba/boxscore --><a name="&lpos=nbaGamePackageOOT&lid=gameLinkOOT" href="http://espn.go.com/nba/boxscore?gameId=310324026" class="ootLink"><div class="game final" ><div class="game-status final "><div class="game-left"><span class="status">Final</span><span class="hidden-clock">OT</span></div><div class="game-right"><span class="clock">OT</span></div>&nbsp;</div><div class="clear"></div><div class="game-left"><div class="info away-winner"></div><div class="teams"><span class="away">NO</span><br/><span class="home">UTAH</span></div><div class="hidden-scores"><span class="away">121</span><br/><span class="home">117</span></div><div class="scores"><span class="away">121</span><br/><span class="home">117</span></div></div><div class="clear"></div><span class="sort">1</span></div></a></li>\n\t\t\t\t\t\t</ul>\n\t\t\t\t\t</div>\n\t\t\t\t</div>\n\n\t\t\t</div>\n\t\t</div>\n\t</div>\n</div>\n\n<script type="text/javascript">\n\n\tvar ESPNootScoreboard = {};\n\n\tESPNootScoreboard.activeSport = \'nba\';\n\n\n\tESPNootScoreboard.myTeams = {\'46-16\': [\'nba-310324006\'], \n\'46-3\': [\'nba-310324026\'], \n\'46-6\': [\'nba-310324006\'], \n\'46-26\': [\'nba-310324026\']};\n\n</script>\n\n\n<script type="text/javascript" src="http://a.espncdn.com/combiner/c?v=201011241739&js=/espn/espn/javascript/gamepackage10/gamepackageOOTJS?sport=nba_en,/espn/espn/javascript/gamepackage10/fixedOOTJS"></script><div class="summary-tabs-container"><div class="span-4" id="gamepackageTop"><div class="status-bar status-final"><p class="game-state">Final </p><!-- Series at a Glance -->\n\n\t\t\t<script langage="javascript">\n\t\t\t\tjQuery(function($){\n\t\t\t\t\t$("#series-dd-arrow").click(function(){\n\t\t\t\t\t\tif($(\'#series-dd\').is(":hidden")){\n\t\t\t\t\t\t\t$(\'#series-dd\').show();\n\t\t\t\t\t\t}else{\n\t\t\t\t\t\t\t$(\'#series-dd\').hide();\n\t\t\t\t\t\t}\n\t\t\t\t\t\treturn false;\n\t\t\t\t\t});\n\t\t\t\t\t$("#dd-close").click(function(){\n\t\t\t\t\t\t$(\'#series-dd\').hide();\n\t\t\t\t\t\treturn false;\n\t\t\t\t\t});\n\t\t\t\t});\n\t\t\t</script>\n\n\n\t\t\t<div class="series-status"><p>Series (Game 3 of 3)</p><a href="#" class="arrow" id="series-dd-arrow"></a></div><div class="series-dropdown" id="series-dd"><p class="close-link"><a href="#" id="dd-close">Close</a></p><p class="dd-series-status">Series starts 12/1</p><table cellspacing="0" class="dd-game"><tr><th colspan="3"><span>Game 1:</span> Wednesday, December 1st</th></tr><tr><td class="team"><a href="http://espn.go.com/nba/team/_/name/min/minnesota-timberwolves " style="color:#000 !important;">Timberwolves</a></td><td class="score">86</td><td class="dd-game-status" rowspan="2">Final<br/></td></tr><tr><td class="team"><a href="http://espn.go.com/nba/team/_/name/dal/dallas-mavericks " style="color:#000 !important;">Mavericks</a></td><td class="score">100</td></tr><tr><td colspan="3" class="footer-links"><a href=/nba/recap?gameId=301201006>Recap &#187;</a><a href=/nba/boxscore?gameId=301201006>Boxscore &#187;</a></td></tr></table><table cellspacing="0" class="dd-game"><tr><th colspan="3"><span>Game 2:</span> Monday, March 7th</th></tr><tr><td class="team"><a href="http://espn.go.com/nba/team/_/name/dal/dallas-mavericks " style="color:#000 !important;">Mavericks</a></td><td class="score">108</td><td class="dd-game-status" rowspan="2">Final<br/></td></tr><tr><td class="team"><a href="http://espn.go.com/nba/team/_/name/min/minnesota-timberwolves " style="color:#000 !important;">Timberwolves</a></td><td class="score">105</td></tr><tr><td colspan="3" class="footer-links"><a href=/nba/recap?gameId=310307016>Recap &#187;</a><a href=/nba/boxscore?gameId=310307016>Boxscore &#187;</a></td></tr></table><table cellspacing="0" class="dd-game"><tr><th colspan="3"><span>Game 3:</span> Thursday, March 24th</th></tr><tr><td class="team"><a href="http://espn.go.com/nba/team/_/name/min/minnesota-timberwolves " style="color:#000 !important;">Timberwolves</a></td><td class="score">96</td><td class="dd-game-status" rowspan="2">Final<br/></td></tr><tr><td class="team"><a href="http://espn.go.com/nba/team/_/name/dal/dallas-mavericks " style="color:#000 !important;">Mavericks</a></td><td class="score">104</td></tr><tr><td colspan="3" class="footer-links"><a href=/nba/recap?gameId=310324006>Recap &#187;</a><a href=/nba/boxscore?gameId=310324006>Boxscore &#187;</a></td></tr></table></div><!-- end Series at a Glance -->\n</div><div class="matchup " id="matchup-nba-310324006"><div class="team away"><div class="logo-medium logo-nba-medium nba-medium-min"></div><div class="team-info"><h3 abbr="false"><a href="http://espn.go.com/nba/team/_/name/min/minnesota-timberwolves">Timberwolves</a> <span>96</span></h3><p>(17-55, 5-31 away)</p></div></div><div class="team home"><div class="logo-medium logo-nba-medium nba-medium-dal"></div><div class="team-info"><h3><a href="http://espn.go.com/nba/team/_/name/dal/dallas-mavericks">Mavericks</a> <span>104</span></h3><p>(50-21, 26-11 home)</p></div></div></div><div class="game-actions"><ul><li><a href="http://proxy.espn.go.com/mobile/alerts/callout?sportAbbrev=NBA&type=game&id=310324006"><span class="outer"><span class="title" style="position:relative; padding-right: 19px;">Alerts<img src="http://a.espncdn.com/prod/assets/alert_trans_5.png" style="position: absolute; right: 0px; top:4px;" /></span></span></a></li></ul></div><style type="text/css">.game-actions {display:none;}</style><div class="game-vitals"><p style="padding: 8px 0px 0px; float: right; font-size: 11px;">Coverage: <strong>FOX SW</strong></p><div class="game-time-location"><p>8:30 PM ET, March 24, 2011</p><p>American Airlines Center, Dallas, TX</p></div></div>\n\n\t<!-- begin line score -->\n\t<div class="line-score clear">\n\t\t<div class="line-score-container">\n\t\t\t<table cellspacing="0" class="linescore">\n\t\t\t\t<tr class="periods">\n\t\t\t\t\t<td class="team"></td>\n\n\t\t\t\t\t<td class="period" style="text-align:center" > 1</td><td class="period" style="text-align:center" > 2</td><td class="period" style="text-align:center" > 3</td><td class="period" style="text-align:center" > 4</td>\n\t\t\t\t\t<td class="total" style="text-align:center">T</td>\n\n\t\t\t\t</tr>\n\n\t\t\t\t<tr><td class="team"><a href="http://espn.go.com/nba/team/_/name/min/minnesota-timberwolves">MIN</a></td><td style="text-align:center" > 23</td><td style="text-align:center" > 24</td><td style="text-align:center" > 25</td><td style="text-align:center" > 24</td><td class="ts" style="text-align:center">96</td></tr><tr><td class="team"><a href="http://espn.go.com/nba/team/_/name/dal/dallas-mavericks">DAL</a></td><td style="text-align:center" > 17</td><td style="text-align:center" > 32</td><td style="text-align:center" > 27</td><td style="text-align:center" > 28</td><td class="ts" style="text-align:center">104</td></tr>\n\t\t\t</table>\n\n\t\t</div>\n\n\t\t<!-- end line score -->\n\n\t\t<div class="game-notes">\n\t\t<p class="heading"><span>Top Performers</span></p><p><span>Minnesota: </span><a href="http://espn.go.com/nba/player/_/id/3455/anthony-randolph" style="color:#000;">A. Randolph</a> 31 Pts, 11 Reb, 3 Ast, 2 Stl, 1 Blk</p><p><span>Dallas: </span><a href="http://espn.go.com/nba/player/_/id/609/dirk-nowitzki" style="color:#000;">D. Nowitzki</a> 30 Pts, 11 Reb, 4 Ast, 1 Stl, 1 Blk</p>\n\t\t</div>\n\t</div>\n</div><div class="span-2 last" id="gp-adwrap"><div class="ad-box" style="padding:2px 0px; height:250px;">\n\t\t\t<!-- begin ad tag -->\n\t\t\t<script language="JavaScript" type="text/javascript">\n\t\t\tif (typeof ad_kvps != \'undefined\' && typeof ad_u != \'undefined\' && typeof ad_counter != \'undefined\' && typeof ad_ord != \'undefined\') {\n\t\t\t\tif (typeof ad_site == \'undefined\' || typeof ad_zone == \'undefined\') {\n\t\t\t\t\tvar ad_site = \'espn.us.com.nba\';\n\t\t\t\t\tvar ad_zone = \'nbaboxscore\';\n\t\t\t\t}\n\t\t\t\tvar ad_finalString = \'http://ad.Doubleclick.net/adj/\'+ad_site+\'/\'+ad_zone+\';\' +ad_kvps+ \'pos=InContent;\' +ad_u+ \'dcopt=ist;sz=300x600,300x250,1x1;tile=\' +ad_counter+ \';ord=\' +ad_ord;\n\t\t\t\tdocument.write(\'<scr\'+\'ipt src=\'+ad_finalString+\'></scr\'+\'ipt>\');\n\t\t\t\tad_counter++;\n\t\t\t}\n\t\t\t</script>\n\t\t\t<noscript>\n\t\t\t<a href="http://ad.Doubleclick.net/jump/espn.us.com.nba/nbaboxscore;sz=300x600,300x250,1x1;" target="_blank">\n\t\t\t<img src="http://ad.Doubleclick.net/ad/espn.us.com.nba/nbaboxscore;sz=300x600,300x250,1x1;" border="0" alt="">\n\t\t\t</a>\n\t\t\t</noscript>\n\t\t\t<!-- end ad tag -->\n\t\t\t</div></div>\n\t<div class="tabs clear">\n\t\t<ul>\n\n\t<li class="" ><a href="recap?gameId=310324006"><span class="title">Recap</span>\n</a>\n</li><li class="active" ><a href="boxscore?gameId=310324006"><span class="title">Box Score</span>\n</a>\n</li><li class="" ><a href="playbyplay?gameId=310324006"><span class="title">Play-By-Play</span>\n</a>\n</li><li class="" ><a href="shotchart?gameId=310324006"><span class="title">Shot Chart</span>\n</a>\n</li><li class="" ><a href="photos?gameId=310324006"><span class="title">Photos</span>\n<span class="quantity"><span>60</span></span></a>\n</li><li class="" ><a href="conversation?gameId=310324006"><span class="title">Conversation</span>\n<span class="quantity"><span id="comments-on-story-count"></span></span><span class="section140" id="section140logo"><img src="http://a.espncdn.com/gamepackage10/i/section140_logo_tab.png" /></span></a>\n</li></ul></div>\n<link href="http://a.espncdn.com/prod/styles/community/echo.1.2.9.css" rel="stylesheet" charset="utf-8" />\n\n\n<script src="http://a.espncdn.com/combiner/c?js=community/echo/jquery-plugins.0.0.2.js,community/echo/auth.0.1.3.js,community/echo/backplane.0.0.0.js" type="text/javascript"></script>\n<script type="text/javascript">\nvar user_echo = null;\nvar echo_allow_access = false;\n\nvar loadEchoScripts = function(scripts, callback) {\n\twindow.EchoLoader = window.EchoLoader || {\n\t\t"scripts": {},\n\t\t"inProgress": false,\n\t\t"queue": []\n\t};\n\tvar load = function(args) {\n\t\tvar scripts2load = [];\n\t\tjQuery.map(args.scripts, function(script) {\n\t\t\tif (!EchoLoader.scripts[script]) {\n\t\t\t\tscripts2load.push(script);\n\t\t\t\tEchoLoader.scripts[script] = true;\n\t\t\t}\n\t\t});\n\t\tif (!scripts2load.length) {\n\t\t\targs.callback();\n\t\t\tEchoLoader.inProgress = false;\n\t\t\treturn;\n\t\t}\n\t\t// if (window.console) console.log(scripts2load.join(","));\n\t\tjQuery.getScript("http://a.espncdn.com/combiner/c?js=" + scripts2load.join(","), function() {\n\t\t\targs.callback();\n\t\t\tEchoLoader.inProgress = false;\n\t\t\tif (EchoLoader.queue.length) {\n\t\t\t\tload(EchoLoader.queue.shift());\n\t\t\t}\n\t\t});\n\t};\n\tEchoLoader.queue.push({\n\t\t"scripts": scripts,\n\t\t"callback": callback\n\t});\n\tif (!EchoLoader.inProgress) {\n\t\tEchoLoader.inProgress = true;\n\t\tload(EchoLoader.queue.shift());\n\t}\n};\n\nif (espn.core.loggedIn) {\n\tvar echo_swid = espn.core.SWID.replace(/({|-|})/g,\'\');;\n\tvar echo_bpid = espn.cookie.get(\'backplane-id\');\n\tvar echo_grif = espn.cookie.get(\'grif\');\n\tif (echo_grif == null) {\n\t\techo_allow_access = true;\n\t}\n\tBackplane.resetCookieChannel();\n\tBackplane.init({\n\t\t"serverBaseURL" : "https://api.echoenabled.com/v1",\n\t\t"busName": "espn.go.com",\n\t\t"channelName": espn.cookie.get(\'backplane-id\')\n\t});\n\tvar backplane_confirmation = false;\n\tvar backplane_subscription = Backplane.subscribe(function(message) {\n\t\tif (message.type == "identity/ack") {\n\t\t\tbackplane_confirmation = true;\n\t\t\tBackplane.unsubscribe(backplane_subscription);\n\t\t}\n\t});\n\tuser_echo = new Echo.User({"appkey": "dev.espn.go.com"});\n\tuser_echo.init(function() {\n\t\tif (user_echo.logged()) {\n\t\t\techo_bpid = echo_bpid.substr(18, echo_bpid.length);\n\t\t\tif (echo_swid != echo_bpid) {\n\t\t\t\tuser_echo.logout();\n\t\t\t}\n\t\t} else {\n\t\t\tif (backplane_confirmation) {\n\t\t\t\tuser_echo._global("set", "state", "init");\n\t\t\t\tuser_echo.init();\n\t\t\t} else {\n\t\t\t\tBackplane.expectMessages(["identity/ack"]);\n\t\t\t\tif (!user_echo.logged()) {\n\t\t\t\t\tvar echo_random = (new Date()).valueOf().toString() + Math.random().toString().substr(2, 5) + echo_swid;\n\t\t\t\t\tBackplane.config.customChannelName = echo_random;\n\t\t\t\t\tBackplane.resetCookieChannel();\n\t\t\t\t\tespn.cookie.set(\'backplane-id\',echo_random);\n\t\t\t\t\tespn.cookie.set(\'bp_channel_id\',Backplane.getChannelID());\n\t\t\t\t\tjQuery.get(\'https://r.espn.go.com/members/util/echoAuthenticate\', null, null, \'jsonp\');\n\t\t\t\t}\n\t\t\t}\n\t\t}\n\t});\n} else {\n\tuser_echo = new Echo.User({"appkey": "dev.espn.go.com"});\n\tuser_echo.init(function() { if (user_echo.logged()) { user_echo.logout(); } });\n}\n\nEcho.Broadcast.subscribe("Submit.onPostComplete", function(topic, data) {\n\tif (typeof window.anTrackEvent == \'function\') anTrackEvent(\'\', \'new_comment\', \'\');\n});\n</script>\n\n\n<script type="text/javascript">\nloadEchoScripts(["community/echo/counter.0.1.4.js"], function() {\n\tnew Echo.Counter({\n\t\t"target":document.getElementById("comments-on-story-count"),\n\t\t"appkey":"dev.espn.go.com",\n\t\t"query":"childrenof:http://scores.espn.go.com/nba/conversation?gameId=310324006 source:espn.go.com,ESPN type:comment state:Untouched,ModeratorApproved -user.state:ModeratorBanned,ModeratorDeleted children source:espn.go.com,ESPN type:comment state:Untouched,ModeratorApproved -user.state:ModeratorBanned,ModeratorDeleted",\n\t\t"liveUpdates": false\n\t});\n});\n</script>\n</div><div class="story-container"><div class="gp-body">\n\t\t\t<!-- begin ad tag -->\n\t\t\t<script language="JavaScript" type="text/javascript">\n\t\t\tif (typeof ad_kvps != \'undefined\' && typeof ad_u != \'undefined\' && typeof ad_counter != \'undefined\' && typeof ad_ord != \'undefined\') {\n\t\t\t\tif (typeof ad_site == \'undefined\' || typeof ad_zone == \'undefined\') {\n\t\t\t\t\tvar ad_site = \'espn.us.com.nba\';\n\t\t\t\t\tvar ad_zone = \'nbaboxscore\';\n\t\t\t\t}\n\t\t\t\tvar ad_finalString = \'http://ad.Doubleclick.net/adj/\'+ad_site+\'/\'+ad_zone+\';\' +ad_kvps+ \'pos=PresentedByLogo;\' +ad_u+ \'sz=200x45,1x1;tile=\' +ad_counter+ \';ord=\' +ad_ord;\n\t\t\t\tdocument.write(\'<scr\'+\'ipt src=\'+ad_finalString+\'></scr\'+\'ipt>\');\n\t\t\t\tad_counter++;\n\t\t\t}\n\t\t\t</script>\n\t\t\t<noscript>\n\t\t\t<a href="http://ad.Doubleclick.net/jump/espn.us.com.nba/nbaboxscore;sz=200x45,1x1;" target="_blank">\n\t\t\t<img src="http://ad.Doubleclick.net/ad/espn.us.com.nba/nbaboxscore;sz=200x45,1x1;" border="0" alt="">\n\t\t\t</a>\n\t\t\t</noscript>\n\t\t\t<!-- end ad tag -->\n\t\t\t<div class="mod-container mod-no-header-footer mod-open mod-open-gamepack mod-box" id="my-players-table"><div class="mod-content"><table border="0" width="100%" class="mod-data"><thead><tr class="team-color-strip"><th style="border-bottom-color: #0E3764; text-align: left; font: 700 14px/25px Helvetica,Arial,sans-serif;" colspan="15"><div style="margin-right: 6px;" class="logo-small logo-nba-small nba-small-min floatleft"></div><a name="Minnesota"></a>Minnesota Timberwolves</th></tr><tr align="right">\n<th style="text-align:left;">STARTERS</th>\n<th width=5%>MIN</th>\n<th width=7% nowrap>FGM-A</th>\n<th width=7%>3PM-A</th>\n<th width=7%>FTM-A</th>\n<th width=6%>OREB</th>\n<th width=6%>DREB</th>\n<th width=6%>REB</th>\n<th width=6%>AST</th>\n<th width=6%>STL</th>\n<th width=6%>BLK</th>\n<th width=6%>TO</th>\n<th width=6%>PF</th>\n<th width=6%>+/-</th>\n<th width=6%>PTS</th>\n</tr>\n</thead><tbody><tr align="right" class="odd player-46-3418">\n<td style="text-align:left;" nowrap><a href="http://espn.go.com/nba/player/_/id/3418/michael-beasley">Michael Beasley</a>, SF</td><td>24</td><td>4-11</td><td>0-1</td><td>4-4</td><td>2</td><td>4</td><td>6</td><td>2</td><td>1</td><td>0</td><td>5</td><td>1</td><td>+3</td><td>12</td></tr><tr align="right" class="even player-46-3455">\n<td style="text-align:left;" nowrap><a href="http://espn.go.com/nba/player/_/id/3455/anthony-randolph">Anthony Randolph</a>, PF</td><td>36</td><td>14-20</td><td>0-0</td><td>3-3</td><td>3</td><td>8</td><td>11</td><td>3</td><td>2</td><td>1</td><td>2</td><td>1</td><td>-6</td><td>31</td></tr><tr align="right" class="odd player-46-2171">\n<td style="text-align:left;" nowrap><a href="http://espn.go.com/nba/player/_/id/2171/darko-milicic">Darko Milicic</a>, C</td><td>15</td><td>0-2</td><td>0-0</td><td>0-0</td><td>0</td><td>2</td><td>2</td><td>1</td><td>0</td><td>1</td><td>2</td><td>4</td><td>+1</td><td>0</td></tr><tr align="right" class="even player-46-1985">\n<td style="text-align:left;" nowrap><a href="http://espn.go.com/nba/player/_/id/1985/luke-ridnour">Luke Ridnour</a>, PG</td><td>24</td><td>2-6</td><td>0-2</td><td>0-0</td><td>0</td><td>2</td><td>2</td><td>3</td><td>0</td><td>0</td><td>2</td><td>1</td><td>0</td><td>4</td></tr><tr align="right" class="odd player-46-4247">\n<td style="text-align:left;" nowrap><a href="http://espn.go.com/nba/player/_/id/4247/wesley-johnson">Wesley Johnson</a>, SG</td><td>27</td><td>3-12</td><td>3-7</td><td>2-2</td><td>0</td><td>4</td><td>4</td><td>1</td><td>0</td><td>1</td><td>1</td><td>0</td><td>-5</td><td>11</td></tr></tbody><thead><tr align="right">\n<th style="text-align:left;">BENCH</th>\n<th width=5%>MIN</th>\n<th width=7% nowrap>FGM-A</th>\n<th width=7%>3PM-A</th>\n<th width=7%>FTM-A</th>\n<th width=6%>OREB</th>\n<th width=6%>DREB</th>\n<th width=6%>REB</th>\n<th width=6%>AST</th>\n<th width=6%>STL</th>\n<th width=6%>BLK</th>\n<th width=6%>TO</th>\n<th width=6%>PF</th>\n<th width=6%>+/-</th>\n<th width=6%>PTS</th>\n</tr>\n</thead><tbody><tr align="right" class="even player-46-3276">\n<td style="text-align:left;" nowrap><a href="http://espn.go.com/nba/player/_/id/3276/anthony-tolliver">Anthony Tolliver</a>, PF</td><td>28</td><td>4-5</td><td>2-2</td><td>1-1</td><td>2</td><td>2</td><td>4</td><td>1</td><td>0</td><td>0</td><td>0</td><td>5</td><td>-10</td><td>11</td></tr><tr align="right" class="odd player-46-2795">\n<td style="text-align:left;" nowrap><a href="http://espn.go.com/nba/player/_/id/2795/martell-webster">Martell Webster</a>, SF</td><td>24</td><td>2-3</td><td>0-0</td><td>0-0</td><td>0</td><td>3</td><td>3</td><td>3</td><td>0</td><td>0</td><td>1</td><td>2</td><td>-11</td><td>4</td></tr><tr align="right" class="even player-46-3981">\n<td style="text-align:left;" nowrap><a href="http://espn.go.com/nba/player/_/id/3981/wayne-ellington">Wayne Ellington</a>, G</td><td>21</td><td>4-9</td><td>0-3</td><td>0-0</td><td>0</td><td>1</td><td>1</td><td>2</td><td>0</td><td>0</td><td>1</td><td>3</td><td>-3</td><td>8</td></tr><tr align="right" class="odd player-46-3985">\n<td style="text-align:left;" nowrap><a href="http://espn.go.com/nba/player/_/id/3985/jonny-flynn">Jonny Flynn</a>, PG</td><td>24</td><td>5-10</td><td>3-3</td><td>0-0</td><td>0</td><td>3</td><td>3</td><td>5</td><td>2</td><td>0</td><td>3</td><td>0</td><td>-8</td><td>13</td></tr><tr align="right" class="even player-46-3453">\n<td style="text-align:left;" nowrap><a href="http://espn.go.com/nba/player/_/id/3453/nikola-pekovic">Nikola Pekovic</a>, C</td><td>18</td><td>1-2</td><td>0-0</td><td>0-2</td><td>0</td><td>2</td><td>2</td><td>0</td><td>0</td><td>0</td><td>0</td><td>2</td><td>-1</td><td>2</td></tr><tr align="right" class="odd player-46-2417">\n<td style="text-align:left;" nowrap><a href="http://espn.go.com/nba/player/_/id/2417/sebastian-telfair">Sebastian Telfair</a>, PG</td><td colspan="14" style="text-align: center;">DNP COACH\'S DECISION</td></tr><tr align="right" class="even player-46-4277">\n<td style="text-align:left;" nowrap><a href="http://espn.go.com/nba/player/_/id/4277/lazar-hayward">Lazar Hayward</a>, F</td><td colspan="14" style="text-align: center;">DNP COACH\'S DECISION</td></tr></tbody><thead><tr align="right"><th style="text-align:left;">TOTALS</th><th></th>\n<th nowrap>FGM-A</th>\n<th>3PM-A</th>\n<th>FTM-A</th>\n<th>OREB</td>\n<th>DREB</th>\n<th>REB</th>\n<th>AST</th>\n<th>STL</th>\n<th>BLK</th>\n<th>TO</th>\n<th>PF</th>\n<th width=6%>&nbsp;</th>\n<th>PTS</th>\n</tr>\n</thead><tbody><tr align="right" class="odd"><td style="text-align:left;" colspan="2"></td><td><strong>39-80</strong></td><td><strong>8-18</strong></td><td><strong>10-12</strong></td><td><strong>7</strong></td><td><strong>31</strong></td><td><strong>38</strong></td><td><strong>21</strong></td><td><strong>5</strong></td><td><strong>3</strong></td><td><strong>17</strong></td><td><strong>19</strong></td><td>&nbsp;</td><td><strong>96</strong></td></tr><tr align="right" class="even"><td style="text-align:left;" colspan="2"></td><td><strong>48.8%</strong></td><td><strong>44.4%</strong></td><td><strong>83.3%</strong></td><td colspan="10"></td></tr><tr class="odd"><td align="right" colspan="15" style="padding:10px;"><div style="float: right;"><strong>Fast break points:</strong>&nbsp;&nbsp;&nbsp;24<br /><strong>Points in the paint:</strong>&nbsp;&nbsp;&nbsp;38<br /><strong>Team TO ( points off ):</strong>&nbsp;&nbsp;&nbsp;18 (29)</div><div style="float: left;">+/- denotes team\'s net points while the player is on the court.</div></td></tr></tbody><thead><tr class="team-color-strip"><th style="border-bottom-color: #0C479D; text-align: left; font: 700 14px/25px Helvetica,Arial,sans-serif;" colspan="15"><div style="margin-right: 6px;" class="logo-small logo-nba-small nba-small-dal floatleft"></div><a name="Dallas"></a>Dallas Mavericks</th></tr><tr align="right">\n<th style="text-align:left;">STARTERS</th>\n<th width=5%>MIN</th>\n<th width=7% nowrap>FGM-A</th>\n<th width=7%>3PM-A</th>\n<th width=7%>FTM-A</th>\n<th width=6%>OREB</th>\n<th width=6%>DREB</th>\n<th width=6%>REB</th>\n<th width=6%>AST</th>\n<th width=6%>STL</th>\n<th width=6%>BLK</th>\n<th width=6%>TO</th>\n<th width=6%>PF</th>\n<th width=6%>+/-</th>\n<th width=6%>PTS</th>\n</tr>\n</thead><tbody><tr align="right" class="odd player-46-510">\n<td style="text-align:left;" nowrap><a href="http://espn.go.com/nba/player/_/id/510/shawn-marion">Shawn Marion</a>, SF</td><td>32</td><td>8-14</td><td>0-1</td><td>1-2</td><td>3</td><td>3</td><td>6</td><td>2</td><td>2</td><td>2</td><td>1</td><td>1</td><td>+5</td><td>17</td></tr><tr align="right" class="even player-46-609">\n<td style="text-align:left;" nowrap><a href="http://espn.go.com/nba/player/_/id/609/dirk-nowitzki">Dirk Nowitzki</a>, PF</td><td>36</td><td>12-26</td><td>1-5</td><td>5-5</td><td>2</td><td>9</td><td>11</td><td>4</td><td>1</td><td>1</td><td>3</td><td>2</td><td>+8</td><td>30</td></tr><tr align="right" class="odd player-46-984">\n<td style="text-align:left;" nowrap><a href="http://espn.go.com/nba/player/_/id/984/tyson-chandler">Tyson Chandler</a>, C</td><td>27</td><td>4-7</td><td>0-0</td><td>1-1</td><td>4</td><td>6</td><td>10</td><td>0</td><td>1</td><td>2</td><td>1</td><td>2</td><td>+6</td><td>9</td></tr><tr align="right" class="even player-46-429">\n<td style="text-align:left;" nowrap><a href="http://espn.go.com/nba/player/_/id/429/jason-kidd">Jason Kidd</a>, PG</td><td>35</td><td>0-5</td><td>0-5</td><td>0-0</td><td>0</td><td>6</td><td>6</td><td>13</td><td>3</td><td>1</td><td>2</td><td>1</td><td>+10</td><td>0</td></tr><tr align="right" class="odd player-46-3963">\n<td style="text-align:left;" nowrap><a href="http://espn.go.com/nba/player/_/id/3963/rodrigue-beaubois">Rodrigue Beaubois</a>, G</td><td>15</td><td>1-5</td><td>1-3</td><td>0-0</td><td>0</td><td>1</td><td>1</td><td>1</td><td>0</td><td>0</td><td>2</td><td>2</td><td>-2</td><td>3</td></tr></tbody><thead><tr align="right">\n<th style="text-align:left;">BENCH</th>\n<th width=5%>MIN</th>\n<th width=7% nowrap>FGM-A</th>\n<th width=7%>3PM-A</th>\n<th width=7%>FTM-A</th>\n<th width=6%>OREB</th>\n<th width=6%>DREB</th>\n<th width=6%>REB</th>\n<th width=6%>AST</th>\n<th width=6%>STL</th>\n<th width=6%>BLK</th>\n<th width=6%>TO</th>\n<th width=6%>PF</th>\n<th width=6%>+/-</th>\n<th width=6%>PTS</th>\n</tr>\n</thead><tbody><tr align="right" class="even player-46-813">\n<td style="text-align:left;" nowrap><a href="http://espn.go.com/nba/player/_/id/813/peja-stojakovic">Peja Stojakovic</a>, SF</td><td>26</td><td>6-10</td><td>4-8</td><td>0-0</td><td>1</td><td>3</td><td>4</td><td>1</td><td>0</td><td>0</td><td>0</td><td>2</td><td>+5</td><td>16</td></tr><tr align="right" class="odd player-46-841">\n<td style="text-align:left;" nowrap><a href="http://espn.go.com/nba/player/_/id/841/jason-terry">Jason Terry</a>, SG</td><td>31</td><td>7-12</td><td>2-5</td><td>2-2</td><td>0</td><td>2</td><td>2</td><td>3</td><td>1</td><td>0</td><td>2</td><td>1</td><td>+13</td><td>18</td></tr><tr align="right" class="even player-46-130">\n<td style="text-align:left;" nowrap><a href="http://espn.go.com/nba/player/_/id/130/brian-cardinal">Brian Cardinal</a>, PF</td><td>1</td><td>0-0</td><td>0-0</td><td>0-0</td><td>0</td><td>0</td><td>0</td><td>1</td><td>0</td><td>0</td><td>1</td><td>0</td><td>-2</td><td>0</td></tr><tr align="right" class="odd player-46-808">\n<td style="text-align:left;" nowrap><a href="http://espn.go.com/nba/player/_/id/808/deshawn-stevenson">DeShawn Stevenson</a>, SG</td><td>1</td><td>0-0</td><td>0-0</td><td>0-0</td><td>0</td><td>0</td><td>0</td><td>0</td><td>0</td><td>0</td><td>0</td><td>0</td><td>0</td><td>0</td></tr><tr align="right" class="even player-46-1000">\n<td style="text-align:left;" nowrap><a href="http://espn.go.com/nba/player/_/id/1000/brendan-haywood">Brendan Haywood</a>, C</td><td>16</td><td>1-1</td><td>0-0</td><td>2-3</td><td>0</td><td>2</td><td>2</td><td>0</td><td>0</td><td>0</td><td>1</td><td>3</td><td>-7</td><td>4</td></tr><tr align="right" class="odd player-46-3055">\n<td style="text-align:left;" nowrap><a href="http://espn.go.com/nba/player/_/id/3055/jose-juan-barea">Jose Juan Barea</a>, PG</td><td>16</td><td>2-4</td><td>0-0</td><td>0-0</td><td>0</td><td>0</td><td>0</td><td>6</td><td>2</td><td>0</td><td>1</td><td>1</td><td>-5</td><td>4</td></tr><tr align="right" class="even player-46-2774">\n<td style="text-align:left;" nowrap><a href="http://espn.go.com/nba/player/_/id/2774/ian-mahinmi">Ian Mahinmi</a>, C</td><td>5</td><td>1-1</td><td>0-0</td><td>1-2</td><td>0</td><td>1</td><td>1</td><td>0</td><td>0</td><td>0</td><td>1</td><td>2</td><td>+9</td><td>3</td></tr></tbody><thead><tr align="right"><th style="text-align:left;">TOTALS</th><th></th>\n<th nowrap>FGM-A</th>\n<th>3PM-A</th>\n<th>FTM-A</th>\n<th>OREB</td>\n<th>DREB</th>\n<th>REB</th>\n<th>AST</th>\n<th>STL</th>\n<th>BLK</th>\n<th>TO</th>\n<th>PF</th>\n<th width=6%>&nbsp;</th>\n<th>PTS</th>\n</tr>\n</thead><tbody><tr align="right" class="odd"><td style="text-align:left;" colspan="2"></td><td><strong>42-85</strong></td><td><strong>8-27</strong></td><td><strong>12-15</strong></td><td><strong>10</strong></td><td><strong>33</strong></td><td><strong>43</strong></td><td><strong>31</strong></td><td><strong>10</strong></td><td><strong>6</strong></td><td><strong>15</strong></td><td><strong>17</strong></td><td>&nbsp;</td><td><strong>104</strong></td></tr><tr align="right" class="even"><td style="text-align:left;" colspan="2"></td><td><strong>49.4%</strong></td><td><strong>29.6%</strong></td><td><strong>80.0%</strong></td><td colspan="10"></td></tr><tr class="odd"><td align="right" colspan="15" style="padding:10px;"><div style="float: right;"><strong>Fast break points:</strong>&nbsp;&nbsp;&nbsp;27<br /><strong>Points in the paint:</strong>&nbsp;&nbsp;&nbsp;46<br /><strong>Team TO ( points off ):</strong>&nbsp;&nbsp;&nbsp;16 (25)</div><div style="float: left;">+/- denotes team\'s net points while the player is on the court.</div></td></tr></tbody></table></div></div><p></p><strong>Flagrant Fouls:</strong> None<br><strong>Technical Fouls:</strong> PLAYERS: None - TEAMS (def3sec): None - COACHES: None<br><strong>Officials:</strong> Dan Crawford , Brent Barnaky , John Goble <br><strong>Attendance:</strong> 20,296<br><strong>Time of Game:</strong> 02:04<br><p></p></BODY><!-- begin sp links -->\n<div style="margin: 10px 0 0 0;">\n<!-- redesignContent=scoreboard-bottom:614w300h--><!-- sport=nba--><!-- begin sponsored links2 09scoreboard614, nba --><!-- values={pid=2187774, placementId=1508117, height=300, width=614}--><div style="margin:0px 0px 5px 0px;"><script type="text/javascript">adsonar_placementId=1508117;adsonar_pid=2187774;adsonar_ps=-1;adsonar_zw=614;adsonar_zh=300;adsonar_jv=\'ads.espn.adsonar.com\';</script><script language="JavaScript" src="http://js.adsonar.com/js/adsonar.js"></script></div></div>\n<!-- end sp links -->\n</div><!-- end gp-body --><div class="clear"></div></div></div></div>\n<div id="nav-wrapper" class="container">\n<div id="nav-wrapper-container">\n<div id="nav-main">\n<!-- begin site nav -->\n<ul class="top">\n<!-- begin site nav -->\n<!-- begin site nav -->\n<ul id="nav-main-list" class="top">\n\t<!-- start: Menuitem :: MyTAB -->\n\t<li id="menu-myespn" class="last myespn">\n\t\t<a class="myespn" ref="#">MyESPN</a>\n\t</li>\n\t<!-- start: Menuitem :: NFL -->\n\t<li id="menu-nfl" class="sport-menu default t-nfl" data-sportid="28">\n\t\t<a href="http://espn.go.com/nfl/" name="&amp;lpos=sitenavdefault&amp;lid=sitenav_nfl">NFL</a>\n\t</li>\n\t<!-- start: Menuitem :: MLB -->\n\t<li id="menu-mlb" class="sport-menu default t-mlb" data-sportid="10">\n\t\t<a href="http://espn.go.com/mlb/" name="&amp;lpos=sitenavdefault&amp;lid=sitenav_mlb">MLB</a>\n\t</li>\n\t<!-- start: Menuitem :: NBA -->\n\t<li id="menu-nba" class="sport-menu default t-nba selected" data-sportid="46">\n\t\t<a href="http://espn.go.com/nba/" name="&amp;lpos=sitenavdefault&amp;lid=sitenav_nba">NBA</a>\n\t</li>\n\t<!-- start: Menuitem :: NHL -->\n\t<li id="menu-nhl" class="sport-menu default t-nhl" data-sportid="90">\n\t\t<a href="http://espn.go.com/nhl/" name="&amp;lpos=sitenavdefault&amp;lid=sitenav_nhl">NHL</a>\n\t</li>\n\t<!-- start: Menuitem :: NCAA FB -->\n\t<li id="menu-ncf" class="sport-menu default t-ncf" data-sportid="23">\n\t\t<a href="http://espn.go.com/college-football/" name="&amp;lpos=sitenavdefault&amp;lid=sitenav_ncf">NCAA FB</a>\n\t</li>\n\t<!-- start: Menuitem :: NCAA BB -->\n\t<li id="menu-ncb" class="sport-menu default t-ncb" data-sportid="41">\n\t\t<a href="http://espn.go.com/mens-college-basketball/" name="&amp;lpos=sitenavdefault&amp;lid=sitenav_ncb">NCAA BB</a>\n\t</li>\n\t<!-- start: Menuitem :: NASCAR -->\n\t<li id="menu-nascar" class="sport-menu default t-nascar" data-sportid="2020">\n\t\t<a href="http://espn.go.com/racing/nascar/" name="&amp;lpos=sitenavdefault&amp;lid=sitenav_nascar">NASCAR</a>\n\t</li>\n\t<!-- start: Menuitem :: SOCCER -->\n\t<li id="menu-soccer" class="sport-menu default t-soccer" data-sportid="600">\n\t\t<a href="http://espn.go.com/sports/soccer/" name="&amp;lpos=sitenavdefault&amp;lid=sitenav_soccer">SOCCER</a>\n\t</li>\n\t<!-- start: Menuitem :: GOLF -->\n\t<li id="menu-golf" class="sport-menu t-golf" data-sportid="1106" style="display: none;">\n\t\t<a href="http://espn.go.com/golf/" name="&amp;lpos=sitenavdefault&amp;lid=sitenav_golfl">GOLF</a>\n\t</li>\n\t<!-- start: Menuitem :: TENNIS -->\n\t<li id="menu-tennis" class="sport-menu t-tennis" data-sportid="850" style="display: none;">\n\t\t<a href="http://espn.go.com/tennis/" name="&amp;lpos=sitenavdefault&amp;lid=sitenav_tennis">TENNIS</a>\n\t</li>\n\t<!-- start: Menuitem :: BOXING-->\n\t<li id="menu-boxing" class="sport-menu t-boxing" data-sportid="1000" style="display: none;">\n\t\t<a href="http://espn.go.com/boxing/" name="&amp;lpos=sitenavdefault&amp;lid=sitenav_boxing">BOXING</a>\n\t</li>\n\t<!-- start: Menuitem :: MMA -->\n\t<li id="menu-mma" class="sport-menu t-mma" data-sportid="3301" style="display: none;">\n\t\t<a href="http://espn.go.com/mma/" name="&amp;lpos=sitenavdefault&amp;lid=sitenav_mma">MMA</a>\n\t</li>\n\t<!-- start: Menuitem :: ALL SPORTS -->\n\t<li id="menu-allsports" class="nav-allsports t-allsports">\n\t\t<a href="http://espn.go.com/sports/" name="&amp;lpos=sitenavdefault&amp;lid=sitenav_allsports">MORE SPORTS</a>\n\t</li>\n\t<!-- start: Menuitem :: INSIDER -->\n\t<li id="menu-insider" class="sport-menu t-insider" style="display: none;">\n\t\t<a href="http://insider.espn.go.com/insider/index" name="&amp;lpos=sitenavdefault&amp;lid=sitenav_insider">INSIDER</a>\n\t</li>\n\t<!-- start: Menuitem :: SPORTSNATION -->\n\t<li id="menu-sportsnation" class="sport-menu t-sportsnation" style="display: none;">\n\t\t<a href="http://espn.go.com/sportsnation/" name="&amp;lpos=sitenavdefault&amp;lid=sitenav_sportsnation">SN</a>\n\t</li>\n\t<!-- start: Menuitem :: RADIO & MORE -->\n\t<li id="menu-radio" class="right-menu two-line last t-radio">\n\t<a href="http://espn.go.com/espnradio/" name="&amp;lpos=sitenavdefault&amp;lid=sitenav_radioandmore">RADIO<span>& MORE</span></a>\n\t</li>\n\t<!-- start: Menuitem :: espnW & P2 -->\n\t<li id="menu-page2" class="right-menu two-line t-page2">\n\t<a href="http://espn.go.com/espnw/" name="&lpos=sitenavdefault&lid=sitenav_espnwandp2" target="_blank">espnW<span>& PAGE 2</span></a>\n\t</li>\n\t<!-- start: Menuitem :: FANTASY & GAMES -->\n\t<li id="menu-fantasy" class="right-menu two-line t-fantasy">\n\t\t<a href="http://games.espn.go.com/frontpage" name="&amp;lpos=sitenavdefault&amp;lid=sitenav_fantasy">FANTASY<span>& GAMES</span></a>\n\t</li>\n\t<!-- start: Menuitem :: WATCH -->\n\t<li id="menu-watch" class="right-menu t-watch">\n\t\t<a href="http://espn.go.com/video/" name="&amp;lpos=sitenavdefault&amp;lid=sitenav_watch">WATCH</a>\n\t</li>\n</ul>\n<!-- end site nav -->\n<!-- end site nav -->\n</ul>\n<!-- end site nav -->\n</div>\n<div class="nav-main-secondary">\n<!--/nba/boxscore--><ul>\n<li><a href="http://espn.go.com/nba/"name="&lpos=subnav&lid=subnav_NBA_NBA+Home">NBA Home</a></li><li><a href="http://scores.espn.go.com/nba/scoreboard"name="&lpos=subnav&lid=subnav_NBA_Scoreboard">Scores</a></li><li><a href="http://espn.go.com/nba/schedule"name="&lpos=subnav&lid=subnav_NBA_NBA+Schedule">Schedule</a></li><li><a href="http://espn.go.com/nba/standings"name="&lpos=subnav&lid=subnav_NBA_Standings">Standings</a></li><li><a href="http://espn.go.com/nba/hollinger/powerrankings">Rankings</a></li><li class="expandable"><a href="http://espn.go.com/nba/teams" name="&lpos=subnav&lid=subnav_NBA_Teams"><span>Teams</span></a><div><dl><dt class="first">Atlantic</dt><dd><a href="http://espn.go.com/nba/team/_/name/bos/boston-celtics" name="&lpos=subnav&lid=subnav_NBA_Teams_bos">Boston Celtics</a></dd><dd><a href="http://espn.go.com/nba/team/_/name/nj/new-jersey-nets" name="&lpos=subnav&lid=subnav_NBA_Teams_nj">New Jersey Nets</a></dd><dd><a href="http://espn.go.com/nba/team/_/name/ny/new-york-knicks" name="&lpos=subnav&lid=subnav_NBA_Teams_ny">New York Knicks</a></dd><dd><a href="http://espn.go.com/nba/team/_/name/phi/philadelphia-76ers" name="&lpos=subnav&lid=subnav_NBA_Teams_phi">Philadelphia 76ers</a></dd><dd><a href="http://espn.go.com/nba/team/_/name/tor/toronto-raptors" name="&lpos=subnav&lid=subnav_NBA_Teams_tor">Toronto Raptors</a></dd><dt class="first">Central</dt><dd><a href="http://espn.go.com/nba/team/_/name/chi/chicago-bulls" name="&lpos=subnav&lid=subnav_NBA_Teams_chi">Chicago Bulls</a></dd><dd><a href="http://espn.go.com/nba/team/_/name/cle/cleveland-cavaliers" name="&lpos=subnav&lid=subnav_NBA_Teams_cle">Cleveland Cavaliers</a></dd><dd><a href="http://espn.go.com/nba/team/_/name/det/detroit-pistons" name="&lpos=subnav&lid=subnav_NBA_Teams_det">Detroit Pistons</a></dd><dd><a href="http://espn.go.com/nba/team/_/name/ind/indiana-pacers" name="&lpos=subnav&lid=subnav_NBA_Teams_ind">Indiana Pacers</a></dd><dd><a href="http://espn.go.com/nba/team/_/name/mil/milwaukee-bucks" name="&lpos=subnav&lid=subnav_NBA_Teams_mil">Milwaukee Bucks</a></dd><dt class="first">Southeast</dt><dd><a href="http://espn.go.com/nba/team/_/name/atl/atlanta-hawks" name="&lpos=subnav&lid=subnav_NBA_Teams_atl">Atlanta Hawks</a></dd><dd><a href="http://espn.go.com/nba/team/_/name/cha/charlotte-bobcats" name="&lpos=subnav&lid=subnav_NBA_Teams_cha">Charlotte Bobcats</a></dd><dd><a href="http://espn.go.com/nba/team/_/name/mia/miami-heat" name="&lpos=subnav&lid=subnav_NBA_Teams_mia">Miami Heat</a></dd><dd><a href="http://espn.go.com/nba/team/_/name/orl/orlando-magic" name="&lpos=subnav&lid=subnav_NBA_Teams_orl">Orlando Magic</a></dd><dd><a href="http://espn.go.com/nba/team/_/name/wsh/washington-wizards" name="&lpos=subnav&lid=subnav_NBA_Teams_was">Washington Wizards</a></dd></dl><dl class="last"><dt class="first">Pacific</dt><dd><a href="http://espn.go.com/nba/team/_/name/gs/golden-state-warriors" name="&lpos=subnav&lid=subnav_NBA_Teams_gs">Golden State Warriors</a></dd><dd><a href="http://espn.go.com/nba/team/_/name/lac/los-angeles-clippers" name="&lpos=subnav&lid=subnav_NBA_Teams_lac">Los Angeles Clippers</a></dd><dd><a href="http://espn.go.com/nba/team/_/name/lal/los-angeles-lakers" name="&lpos=subnav&lid=subnav_NBA_Teams_lal">Los Angeles Lakers</a></dd><dd><a href="http://espn.go.com/nba/team/_/name/phx/phoenix-suns" name="&lpos=subnav&lid=subnav_NBA_Teams_phx">Phoenix Suns</a></dd><dd><a href="http://espn.go.com/nba/team/_/name/sac/sacramento-kings" name="&lpos=subnav&lid=subnav_NBA_Teams_sac">Sacramento Kings</a></dd><dt class="first">Southwest</dt><dd><a href="http://espn.go.com/nba/team/_/name/dal/dallas-mavericks" name="&lpos=subnav&lid=subnav_NBA_Teams_dal">Dallas Mavericks</a></dd><dd><a href="http://espn.go.com/nba/team/_/name/hou/houston-rockets" name="&lpos=subnav&lid=subnav_NBA_Teams_hou">Houston Rockets</a></dd><dd><a href="http://espn.go.com/nba/team/_/name/mem/memphis-grizzlies" name="&lpos=subnav&lid=subnav_NBA_Teams_mem">Memphis Grizzlies</a></dd><dd><a href="http://espn.go.com/nba/team/_/name/no/new-orleans-hornets" name="&lpos=subnav&lid=subnav_NBA_Teams_no">New Orleans Hornets</a></dd><dd><a href="http://espn.go.com/nba/team/_/name/sa/san-antonio-spurs" name="&lpos=subnav&lid=subnav_NBA_Teams_sa">San Antonio Spurs</a></dd><dt class="first">Northwest</dt><dd><a href="http://espn.go.com/nba/team/_/name/den/denver-nuggets" name="&lpos=subnav&lid=subnav_NBA_Teams_den">Denver Nuggets</a></dd><dd><a href="http://espn.go.com/nba/team/_/name/min/minnesota-timberwolves" name="&lpos=subnav&lid=subnav_NBA_Teams_min">Minnesota Timberwolves</a></dd><dd><a href="http://espn.go.com/nba/team/_/name/okc/oklahoma-city-thunder" name="&lpos=subnav&lid=subnav_NBA_Teams_okc">Oklahoma City Thunder</a></dd><dd><a href="http://espn.go.com/nba/team/_/name/por/portland-trail-blazers" name="&lpos=subnav&lid=subnav_NBA_Teams_por">Portland Trail Blazers</a></dd><dd><a href="http://espn.go.com/nba/team/_/name/utah/utah-jazz" name="&lpos=subnav&lid=subnav_NBA_Teams_uth">Utah Jazz</a></dd></dl></div></li><li><a href="http://espn.go.com/nba/draft"name="&lpos=subnav&lid=subnav_NBA_Draft">Draft</a></li> <li><a href="http://espn.go.com/nba/players"name="&lpos=subnav&lid=subnav_NBA_Players">Players</a></li><li><a href="http://espn.go.com/nba/statistics"name="&lpos=subnav&lid=subnav_NBA_Stats">Stats</a></li><li><a href="http://espn.go.com/nba/truehoop/miamiheat"name="&lpos=subnav&lid=subnav_Heat_Index">Heat Index</a></li><li><a href="http://espn.go.com/blog/truehoop"name="&lpos=subnav&lid=subnav_NBA_TrueHoop">TrueHoop</a></li><li><a href="http://sports.espn.go.com/nba/dailydime"name="&lpos=subnav&lid=subnav_NBA_Daily_Dime">Dime</a></li><li><a href="http://insider.espn.go.com/nba/features/rumors"name="&lpos=subnav&lid=subnav_NBA_Rumors">Rumors</a></li><li><a href="http://espn.go.com/nba/lines">Odds</a></li><li><a href="http://www.stubhub.com/nba-tickets/" target="_blank" onclick="this.href=this.href+\'?gcid=C12289x522&gtkw=NBA+Sub+Nav\'" class="external" name="&lpos=subnav&lid=subnav_NBA+Tickets">Tickets</a></li>\n</ul>\n</div>\n</div>\n</div>\n</div>\n<!-- end content -->\n</div>\n<!-- end subheader -->\n\n<script>\nespn.core.init.nav();\n</script>\n<!-- begin footer -->\n<div id="footer" class="container">\n<script type="text/javascript">\r//<![CDATA[\nvar link = window.location;\nvar bugText = \'<a href="#" onclick="window.open(\\\'http://dynamic.espn.go.com/espn/bugs?url=\' + escape(link) + \'\\\', \\\'Bugs\\\',\\\'noresizable,noscrollbars,height=400,width=400\\\');">Report a Bug</a> | \';\n//]]>\n</script>\n<span style="font-weight:bold;">ESPN.com:</span> <a href="http://sports.espn.go.com/espn/news/story?page=help/index">Help</a> | <a href="http://www.espnmediazone3.com/us/category/releases/" rel="nofollow">PR Media Kit</a> | <a href="http://www.espncms.com/Advertise-on-ESPN.aspx" rel="nofollow">Advertise on ESPN.com</a> | <a href="http://www.espncms.com" rel="nofollow">Sales Media Kit</a> | <a href="http://preferences.truste.com/2.0/?type=espn&affiliateId=148" onclick="window.open(\'http://preferences.truste.com/2.0/?type=espn&affiliateId=148\',\'popup\',\'width=986,height=878,scrollbars=yes,resizable=no,toolbar=no,directories=no,location=no,menubar=no,status=no,left=0,top=0\'); return false">Interest-Based Ads</a> | <script type="text/javascript">document.write(bugText);</script><a href="http://espn.go.com/espn/corrections">Corrections</a> | <a href="http://sports.espn.go.com/espn/news/story?page=contact/index">Contact Us</a> | <a href="http://espn.go.com/espn/sitemap">Site Map</a> | <a href="http://espn.go.com/espn/news/story?page=patents">Patents</a> | <a href="http://espncareers.com">Jobs at ESPN</a> | <a href="http://corporate.disney.go.com/corporate/sourcing.html" rel="nofollow"><span style="font-weight:bold;">Supplier Information</span></a><br/>&copy;2012 ESPN Internet Ventures. <a href="http://disney.go.com/corporate/legal/terms.html" rel="nofollow">Terms of Use</a> and <a href="http://disney.go.com/corporate/privacy/pp_espn.html" rel="nofollow">Privacy Policy and Safety Information/Your California Privacy Rights</a> are applicable to you.  All rights reserved.\n\n<!--\n<a href="http://www.espnshop.com/" onClick="location.href(\'http://log.go.com/log?srvc=sz&guid=73B641A0-6660-4EFC-B8FF-9DE23E8CD9BD&drop=0&addata=3374:65:478847:65&a=1&goto=http://www.espnshop.com/\');return false">Shop</a>\n-->\n</div>\n<!-- end footer -->\n<!--[if lte IE 8]></div><![endif]-->\n</div>\n<!-- end bg-elements -->\n\n\n\n<!-- SiteCatalyst code version: H.21.3 Copyright 1997-2010 Omniture, Inc. http://www.omniture.com -->\n<script type="text/javascript">\n\tvar s_account="wdgespcom";\n\tvar omniPageName = "espn:nba:game:boxscore:310324006+-+min+at+dal";\n\t\n\tvar insiderStatus = "",\n\tanGen = "",\n\tanYear = "",\n\tanDateString = "",\n\tanLoginStatus = "",\n\tundef = \'undefined\',\n\tcallOmniture = function(){\n\t\tif (typeof anCV != "undefined"){anParseLoginBarInfo(anCV);}\n\t\ts_omni.pageName="nba:game:boxscore:310324006+-+min+at+dal";\n\t\ts_omni.server = window.location.host; // Server from the Host\n\t\ts_omni.channel = "nba";\n\t\ts_omni.prop1 = "espn";\n\t\ts_omni.prop4 = "nbaboxscore";\n\t\ts_omni.prop5 = "nba:game:boxscore";\n\t\ts_omni.prop11 = (insiderStatus !== null) ? insiderStatus + ":premium-no" : "premium-no";\n\t\ts_omni.prop17 = "en";\n\t\ts_omni.prop21 = anDateString;\n\t\ts_omni.prop22 = anGen;\n\t\ts_omni.prop25 = "basketball";\n\t\ts_omni.prop26 = "nba";\n\t\ts_omni.prop29 = anLoginStatus;\n\t\ts_omni.prop30 = "n";\n\t\ts_omni.hier1 = "nba:game:boxscore:310324006+-+min+at+dal";\n\t\ts_omni.eVar7 = anYear + ":" + anGen + ":" + anLoginStatus + ":" + s_omni.prop11 + ":";\n\t\ts_omni.eVar9 = "en";\n\t\ts_omni.eVar13 = "nba:game:boxscore:310324006+-+min+at+dal";\n\t\ts_omni.eVar19 = "basketball";\n\t\ts_omni.eVar21 = "nba";\n\t\t\n\t\tif (s_omni.prop11=="anonymous:premium-yes" || s_omni.prop11=="insider-no:premium-yes" && typeof s_omni.prop4!="undefined" &&\n\t\t\t(s_omni.prop4=="story" || s_omni.prop4=="blog")) {\n\t\t\tif (typeof s_omni.events != "undefined" && s_omni.events!="") {\n\t\t\t\ts_omni.events = s_omni.events+",event8" }\n\t\t\telse { s_omni.events="event8" }\n\t\t}\n\t\tanDebugCase = "ver_15Feb11_0_";\n\t\t/************* DO NOT ALTER ANYTHING BELOW THIS LINE ! **************/\n\t\tvar s_code=s_omni.t();\n\t\tif(s_code) {\n\t\t\t//document.write(s_code);\n\t\t\tjQuery(\'body\').append(s_code);\n\t\t}\n\t};\n\t\n\n\n\tjQuery(function($) {\n\t\t// we want to load the analytics files from the cache if possible - so, let\'s use full $.ajax() calls\n\t\t$.ajax({\n\t\t\ttype:\'GET\',\n\t\t\turl: \'http://a.espncdn.com/combiner/c?js=analytics/sOmni.js,analytics/analytics.js,analytics/zf.js,analytics/externalnielsen.js\',\n\t\t\tdataType: \'script\',\n\t\t\tcache: true,\n\t\t\tsuccess: function() {\n\t\t\t\tvar lgSrc;\n\t\t\t\tif(typeof anCV !== undef && anCV === \'\' && document.getElementById(\'form-memberarea\') != null) {\n\t\t\t\t\tlgSrc = (\'https:\' === document.location.protocol) ? \'https://r.espn.go.com/members/util/getUserInfo?cb=runOmnitureIndependently\' : \'http://sports.espn.go.com/espn/js/uniloginInLineReplace?cb=runOmnitureIndependently\';\n\t\t\t\t\t$.getScript(lgSrc); // we don\'t want this to be cached - so we\'ll use the $.getScript() method\n\t\t\t\t} else {\n\t\t\t\t\tcallOmniture();\n\t\t\t\t\tif (typeof(zf) != "undefined") zf("http://espn.zoomflow.com/zf", "ZoomFlow");\n\t\t\t\t}\n\t\t\t}\n\t\t});\n\t});\n\n</script>\n<!-- End SiteCatalyst code version: H.21. --><script>\njQuery.getScriptCache(\'http://assets.espn.go.com/prod/scripts/foresee/v7/foresee-trigger.js\');\n</script>\n<!-- dynamic logic: safecount -->\n<script src="http://content.dl-rms.com/rms/mother/508/nodetag.js"></script>\n\n<script type="text/javascript" charset="utf-8">buildOutHeadlinesForPinnedSite();</script>\n</body>\n</html>'
p2
sS'310324026'
p3
S'<!DOCTYPE html PUBLIC "-//W3C//DTD XHTML 1.0 Transitional//EN"\n\t"http://www.w3.org/TR/xhtml1/DTD/xhtml1-transitional.dtd">\n<html xmlns="http://www.w3.org/1999/xhtml" xmlns:fb="http://www.facebook.com/2008/fbml">\n<head>\n<meta http-equiv="Content-type" content="text/html; charset=utf-8" />\n<title>New Orleans Hornets vs. Utah Jazz - Box Score - March 24, 2011 - ESPN</title>\n<meta name="google-site-verification" content="xuj1ODRluWa0frM-BjIr_aSHoUC7HB5C1MgmYAM_GkA" />\n<meta name="msvalidate.01" content="980DAC91C6458F6FA90F7089E61D12B0" />\n<meta name="googlebot" content="noodp" />\n<meta name="robots" content="index, follow" />\n<meta name="description" content="NBA Basketball Box Score: Final statistics from the New Orleans Hornets vs. Utah Jazz game played on March 24, 2011" />\n<meta name="keywords" content="nba basketball Box Score, New Orleans stats, Utah stats" />\n<link rel="canonical" href="/nba/http://espn.go.com/nba/boxscore/_/id/310324026/new-orleans-hornets-vs-utah-jazz" />\n<link rel="search" type="application/opensearchdescription+xml" href="http://a.espncdn.com/search/opensearch.xml" title="ESPN Search" />\n<link rel="stylesheet" href="http://a.espncdn.com/combiner/c/201201160807?css=global_reset.r1.css,base.r236.css,modules.r444.css,global_header.r42.css,modules/global_nav.r48.css,modules/insider_enhanced.200910131831.css,mem2010/mem.r5.css,mem2010/mem_espn360.r2.css,registration/facebook.button.v2.css,warvertical12e.css,twin.css,universal_overlay/universal_overlay.css,universal_overlay/media_overlay.css,universal_overlay/video_overlay.css,universal_overlay/photo_overlay.css,universal_overlay/dyk_overlay.css" type="text/css" media="screen" charset="utf-8" />\n<link rel="stylesheet" href="http://a.espncdn.com/combiner/c?css=espn.teams.r4l.css" type="text/css" media="screen" charset="utf-8" />\n<link rel="stylesheet" href="http://a.espncdn.com/combiner/c?v=201111301331&css=/espn/espn/styles/gamepackage10/ootCSS,/espn/espn/styles/gamepackage10/gamepackage10CSS,/espn/espn/styles/gamepackage10/gamepackage10moduleCSS,/espn/espn/styles/teamSprites/nbaSpriteCSS" type="text/css" media="screen" charset="utf-8" />\n<link rel="stylesheet" href="http://a.espncdn.com/prod/styles/playerpopup1.css" type="text/css" media="screen" charset="utf-8" />\n<script src="http://a.espncdn.com/combiner/c?js=jquery-1.7.1.js,plugins/json2.r3.js,plugins/teacrypt.js,plugins/jquery.metadata.js,plugins/jquery.bgiframe.r3.js,plugins/jquery.easing.1.3.js,plugins/jquery.hoverIntent.js,plugins/jquery.jcarousel.js,plugins/jquery.tinysort.r4.js,plugins/jquery.pubsub.r5.js,ui/1.8.16/jquery.ui.core.js,ui/1.8.16/jquery.ui.widget.js,ui/1.8.16/jquery.ui.tabs.js,ui/1.8.16/jquery.ui.accordion.js,plugins/ba-debug-0.4.js,espn.l10n.r12.js,swfobject/2.2/swfobject.js,flashObjWrapper.r7.js,plugins/jquery.colorbox.1.3.14.js,plugins/jquery.ba-postmessage.js,espn.core.duo.r54.js,espn.mem.r27.js,stub.search.r9.js,espn.nav.mega.r33.js,espn.storage.r6.js,espn.p13n.r15.js,espn.video.r57.js,registration/staticLogin.r10-26.js,espn.universal.overlay.r8.js,insider/espn.insider.201112021227.js,espn.espn360.stub.r9.js,espn.myHeadlines.stub.r13.js,espn.myfaves.stub.r3.js,tsscoreboard.20090612.js,%2Fforesee%2Fv7%2Fforesee-alive.js,ie9pinning.r3.js,playerpopup.r12.js"></script>\n<script>espn.core.navVersion = \'a\';</script>\n<script type="text/javascript" src="http://a.espncdn.com/prod/scripts/mbox.20.js"></script>\n\n\t<script language="javascript">\n\tvar ad_site = \'espn.us.com.nba\';\n\tvar ad_zone = \'nbaboxscore\';\n\tvar ad_kvps = \'pgtyp=nbaboxscore;sp=nba;\';\n\tvar ad_swid = \'\';\n\tvar ad_counter = 1;\n\tvar ad_ord = Math.floor(Math.random()*9999999999);\n\tvar ad_seg = \'\';\n\n\t\n\t\tad_swid = jQuery.cookie(\'SWID\');\n\t\tif(typeof espn.core.ad_segments == \'function\') {\n\t\t\tad_seg = espn.core.ad_segments();\n\t\t\tif (ad_seg != null && ad_seg != \'\') {\n\t\t\t\tad_kvps = ad_kvps + ad_seg\n\t\t\t}\n\t\t}\n\t\n\n\t// the u\n\tvar ad_u = \'u=pgtyp=nbaboxscore|sp=nba\';\n\tvar ad_seg_u = ad_seg;\n\tif (ad_swid != null && ad_swid != \'\') {\n\t\tif (ad_swid.length > 54) {\n\t\t\tad_swid = ad_swid.substring(0,54);\n\t\t}\n\t\tad_newu = \'u=swid=\'+ad_swid+\'|\';\n\t\tad_u = ad_u.replace(\'u=\',ad_newu);\n\t}\n\tif (ad_seg_u != null && ad_seg_u != \'\') {\n\t\twhile(ad_seg_u.indexOf(\';\')!=-1) {\n\t\t\tad_seg_u = ad_seg_u.replace(\';\',\'|\');\n\t\t}\n\t\tad_u = ad_u + \'|\' + ad_seg_u;\n\t}\n\tad_u = ad_u + \';\';\n\tif (ad_u.length > 255) {\n\t\tad_u = ad_u.substring(0,254);\n\t}\n\t</script>\n\t</head>\n<body class="game-package nba {sportId:46}" >\n<div class="mboxDefault"></div><script></script><!--[if IE 6]><div class="ie ie6"><![endif]-->\n<!--[if IE 7]><div class="ie ie7"><![endif]-->\n<!--[if IE 8]><div class="ie ie8"><![endif]-->\n<!-- begin bg-elements -->\n<div class="bg-elements">\n<!-- begin header -->\n<div id="header" class="container">\n<!-- begin top-bar -->\n<div class="top-bar">\n<!-- begin uni login -->\n<script type="text/javascript">\nvar returnURL = document.location.href;\nvar anCV = "";\nvar myEspnText = {\'welcometext\':\'Welcome\',\'register\':\'Register\',\'signin\':\'Sign In\',\'signout\':\'Sign Out\',\'heliumdown\':\'Login Temporarily Unavailable\',\'connectedfacebook\':\'Connected to Facebook\',\'connectfacebook\':\'Connect with Facebook\',\'activateinsider\':\'Activate Insider\'};\n</script>\n<form id="form-memberarea">\n<input type="hidden" name="language" id="language" value="en"/>\n<input type="hidden" name="affiliateName" id="memberAreaAffiliateName" value="espn"/>\n<input type="hidden" name="regFormId" id="regFormId" value="espn"/>\n</form>\n<div class="signin" id="signin"></div>\n<script>espn.memberservices.welcome();</script>\n<div class="nav-edition editions">\n<label>EDITIONS:</label>\n<ul class="main">\n\t<li class="e-usa active"><a href="http://espn.go.com/" name="&amp;lpos=editionsnav&amp;lid=usa">USA</a></li>\n\t<li class="e-deportes"><a href="http://espndeportes.espn.go.com/" name="&amp;lpos=editionsnav&amp;lid=deportes">DEPORTES</a></li>\n\t<li class="last dropdown">\n\t<ul class="">\n\t<li class="selected">More</li>\n\t<li><a href="http://www.espnstar.com/" name="&amp;lpos=editionsnav&amp;lid=asia">Asia</a></li>\n\t<li><a href="http://www.espn.com.au" name="&amp;lpos=editionsnav&amp;lid=australia">Australia</a></li>\n\t<li><a href="http://www.espn.com.br" name="&amp;lpos=editionsnav&amp;lid=brazil">Brazil</a></li>\n\t<li><a href="http://www.espn.co.uk/" name="&amp;lpos=editionsnav&amp;lid=uk">United Kingdom</a></li>\n\t</ul>\n\t</li>\n</ul>\n</div>\n\n<div class="nav-edition">\n<label>CITIES:</label>\n<ul class="main">\n\t<li class="e-boston"><a href="http://espn.go.com/boston/" name="&amp;lpos=citynav&amp;lid=boston">BOSTON</a></li>\n\t<li class="e-chicago"><a href="http://espn.go.com/chicago/" name="&amp;lpos=citynav&amp;lid=chicago">CHICAGO</a></li>\n\t<li class="e-dallas"><a href="http://espn.go.com/dallas/" name="&amp;lpos=citynav&amp;lid=dallas">DALLAS</a></li>\n\t<li class="e-losangeles"><a href="http://espn.go.com/los-angeles/" name="&amp;lpos=citynav&amp;lid=losangeles">LOS ANGELES</a></li>\n\t<li class="last e-newyork"><a href="http://espn.go.com/new-york/" name="&amp;lpos=citynav&amp;lid=newyork">NEW YORK</a></li>\n</ul>\n</div>\n</div>\n<!-- end top-bar -->\n<!-- begin espn-logo -->\n<div class="espn-logo">\n<h1>\n<a href="http://espn.go.com/" class="espn">ESPN</a> <a href="http://espn.go.com/nba/" class="section-title">NBA</a></h1>\n</div>\n<!-- end espn-logo -->\n<!-- begin ad -->\n<span class="presby">\n\t\t\t<!-- begin ad tag -->\n\t\t\t<script language="JavaScript" type="text/javascript">\n\t\t\tif (typeof ad_kvps != \'undefined\' && typeof ad_u != \'undefined\' && typeof ad_counter != \'undefined\' && typeof ad_ord != \'undefined\') {\n\t\t\t\tif (typeof ad_site == \'undefined\' || typeof ad_zone == \'undefined\') {\n\t\t\t\t\tvar ad_site = \'espn.us.com.nba\';\n\t\t\t\t\tvar ad_zone = \'nbaboxscore\';\n\t\t\t\t}\n\t\t\t\tvar ad_finalString = \'http://ad.Doubleclick.net/adj/\'+ad_site+\'/\'+ad_zone+\';\' +ad_kvps+ \'pos=SponsoredByLogoHeader;\' +ad_u+ \'sz=150x45,1x1;tile=\' +ad_counter+ \';ord=\' +ad_ord;\n\t\t\t\tdocument.write(\'<scr\'+\'ipt src=\'+ad_finalString+\'></scr\'+\'ipt>\');\n\t\t\t\tad_counter++;\n\t\t\t}\n\t\t\t</script>\n\t\t\t<noscript>\n\t\t\t<a href="http://ad.Doubleclick.net/jump/espn.us.com.nba/nbaboxscore;sz=150x45,1x1;" target="_blank">\n\t\t\t<img src="http://ad.Doubleclick.net/ad/espn.us.com.nba/nbaboxscore;sz=150x45,1x1;" border="0" alt="">\n\t\t\t</a>\n\t\t\t</noscript>\n\t\t\t<!-- end ad tag -->\n\t\t\t</span>\n<!-- end ad -->\n\t  <div id="shop">\n\t  \t<a class="shop-btn" href="http://espnshop.com/entry.point?target=Z&amp;source=ESPN_HPHEADERLINK:SHOPBUTTONHEADER:6_1_10" name="&lpos=sitenavdefault&lid=sitenav_shopbutton">Shop</a>\n\t  </div>\n\t  <style>.ie6 #searchBox, .ie6 #searchBox div { display: inline; } </style><!-- begin search -->\n<div id="nav-main-search">\n<form id="searchBox" name="searchBox" action="http://search.espn.go.com/results" method="get" accept-charset="utf-8" style="color: #999999;">\n<div class="clearfix">\n<input autocomplete="off" class="text" type="text" placeholder="Search" name="searchString" id="searchString" />\n<input type="hidden" name="page" id="page" value="null" />\n<input type="hidden" name="fromForm" value="true" />\n<input class="submit" type="submit" value="" />\n</div>\n</form>\n</div>\n<!-- end search -->\n</div>\n<!-- end header -->\n\n\t\t\t<!-- begin ad tag -->\n\t\t\t<script language="JavaScript" type="text/javascript">\n\t\t\tif (typeof ad_kvps != \'undefined\' && typeof ad_u != \'undefined\' && typeof ad_counter != \'undefined\' && typeof ad_ord != \'undefined\') {\n\t\t\t\tif (typeof ad_site == \'undefined\' || typeof ad_zone == \'undefined\') {\n\t\t\t\t\tvar ad_site = \'espn.us.com.nba\';\n\t\t\t\t\tvar ad_zone = \'nbaboxscore\';\n\t\t\t\t}\n\t\t\t\tvar ad_finalString = \'http://ad.Doubleclick.net/adj/\'+ad_site+\'/\'+ad_zone+\';\' +ad_kvps+ \'pos=Background_Skin;\' +ad_u+ \'sz=1280x946,200x800,1x1;tile=\' +ad_counter+ \';ord=\' +ad_ord;\n\t\t\t\tdocument.write(\'<scr\'+\'ipt src=\'+ad_finalString+\'></scr\'+\'ipt>\');\n\t\t\t\tad_counter++;\n\t\t\t}\n\t\t\t</script>\n\t\t\t<noscript>\n\t\t\t<a href="http://ad.Doubleclick.net/jump/espn.us.com.nba/nbaboxscore;sz=1280x946,200x800,1x1;" target="_blank">\n\t\t\t<img src="http://ad.Doubleclick.net/ad/espn.us.com.nba/nbaboxscore;sz=1280x946,200x800,1x1;" border="0" alt="">\n\t\t\t</a>\n\t\t\t</noscript>\n\t\t\t<!-- end ad tag -->\n\t\t\t<!-- begin subheader -->\n<div id="subheader">\n<!-- begin content -->\n<div id="content-wrapper">\n<div id="ad-top" class="container">\n<!-- begin Banner ad -->\n<div class="span-6 ad banner top"><div class="ad-center"><div class="ad-wrapper">\n\t\t\t<!-- begin ad tag -->\n\t\t\t<script language="JavaScript" type="text/javascript">\n\t\t\tif (typeof ad_kvps != \'undefined\' && typeof ad_u != \'undefined\' && typeof ad_counter != \'undefined\' && typeof ad_ord != \'undefined\') {\n\t\t\t\tif (typeof ad_site == \'undefined\' || typeof ad_zone == \'undefined\') {\n\t\t\t\t\tvar ad_site = \'espn.us.com.nba\';\n\t\t\t\t\tvar ad_zone = \'nbaboxscore\';\n\t\t\t\t}\n\t\t\t\tvar ad_finalString = \'http://ad.Doubleclick.net/adj/\'+ad_site+\'/\'+ad_zone+\';\' +ad_kvps+ \'pos=Banner;\' +ad_u+ \'sz=728x90,970x66,924x50,1x1;tile=\' +ad_counter+ \';ord=\' +ad_ord;\n\t\t\t\tdocument.write(\'<scr\'+\'ipt src=\'+ad_finalString+\'></scr\'+\'ipt>\');\n\t\t\t\tad_counter++;\n\t\t\t}\n\t\t\t</script>\n\t\t\t<noscript>\n\t\t\t<a href="http://ad.Doubleclick.net/jump/espn.us.com.nba/nbaboxscore;sz=728x90,970x66,924x50,1x1;" target="_blank">\n\t\t\t<img src="http://ad.Doubleclick.net/ad/espn.us.com.nba/nbaboxscore;sz=728x90,970x66,924x50,1x1;" border="0" alt="">\n\t\t\t</a>\n\t\t\t</noscript>\n\t\t\t<!-- end ad tag -->\n\t\t\t</div></div></div>\n<!-- end Banner ad -->\n</div>\n<div id="content" class="container">\n<!--[if lte IE 6]><link rel="stylesheet" charset="utf-8" media="screen" href="http://a.espncdn.com/combiner/c?css=modules/browser-alert.r7.css" type="text/css" /><div class="span-6" id="browser-alert-wrapper" style="display:none;"><div class="mod-container mod-no-header-footer browser-alert"><div class="mod-content"><div class="gradient-container"><h1><span>Your Web Browser</span> is no longer supported</h1><p>To experience everything that ESPN.com has to offer, we recommend that you upgrade to a newer version of your web browser. Click the upgrade button to the right or <a href="http://espn.go.com/espn/news/story?id=5630562">learn more</a>.</p><ul><li><a class="btn-upgrade" href="http://www.microsoft.com/windows/internet-explorer/default.aspx">Upgrade</a></li><li><a class="btn-faq" href="http://espn.go.com/espn/news/story?id=5630562">FAQs</a></li></ul></div></div></div></div><script>(function(b){setTimeout(function(){var a=b("#browser-alert-wrapper");if(espn.cookie.get("browseralert")!="true"){b(\'<a class="btn-close" href="#">Close</a>\').bind("click",function(){a.hide();espn.cookie.set("browseralert","true",30);return false}).appendTo(a.find(".gradient-container"));a.show();espn.cookie.set("browseralert","true")}},100)})(jQuery);</script><![endif]--><div class="span-6">\n\n<div class="scoreboard-strip-wrapper" style="height:61px; width:916px;">\n\t<div class="scoreboard-strip" id="ootScoreboard">\n\t\t<div id="ootShadow"></div>\n\n\t\t<div class="scoreboard-title-hq">\n\t\t\t\n\n\t\t\t\t<div class="subhead">\n\n\t\t\t\t\t<span>\n\t\t\t\t\t\t<a name="&lpos=nbaGamePackageOOT&lid=scoreLinkOOT" href="/nba/scoreboard?date=20110324">Scores for Mar 24, 2011</a>\n\t\t\t\t\t</span>\n\n\t\t\t\t</div>\n\n\t\t\t\n\t\t</div>\n\n\t\t<div class="scoreboard-container" id="scoreboard2" style="width:auto !important;  margin-left: 210px !important">\n\t\t\t<div class="container">\n\t\t\t\t<div style="display: block;" class="jcarousel-prev jcarousel-next-horizontal oot-prev"></div>\n\t\t\t\t<div style="display: block;" class="jcarousel-next jcarousel-next-horizontal oot-next"></div>\n\t\t\t\t<div class="mod-content  mod-content-hq">\n\t\t\t\t\t<div id="nba-scores" class="scores-carousel {note:\'THERE ARE NO NBA GAMES TODAY\'} ui-tabs-panel ui-widget-content ui-corner-bottom">\n\t\t\t\t\t\t<ul>\n\t\t\t\t\t\t\t<li id="nba-310324006"><!-- url: http://espn.go.com/nba/boxscore --><a name="&lpos=nbaGamePackageOOT&lid=gameLinkOOT" href="http://espn.go.com/nba/boxscore?gameId=310324006" class="ootLink"><div class="game final" ><div class="game-status final "><div class="game-left"><span class="status">Final</span><span class="hidden-clock"></span></div><div class="game-right"><span class="clock"></span></div>&nbsp;</div><div class="clear"></div><div class="game-left"><div class="info home-winner"></div><div class="teams"><span class="away">MIN</span><br/><span class="home">DAL</span></div><div class="hidden-scores"><span class="away">96</span><br/><span class="home">104</span></div><div class="scores"><span class="away">96</span><br/><span class="home">104</span></div></div><div class="clear"></div><span class="sort">0</span></div></a></li><li id="nba-310324026"><!-- url: http://espn.go.com/nba/boxscore --><a name="&lpos=nbaGamePackageOOT&lid=gameLinkOOT" href="http://espn.go.com/nba/boxscore?gameId=310324026" class="ootLink"><div class="game final" ><div class="game-status final "><div class="game-left"><span class="status">Final</span><span class="hidden-clock">OT</span></div><div class="game-right"><span class="clock">OT</span></div>&nbsp;</div><div class="clear"></div><div class="game-left"><div class="info away-winner"></div><div class="teams"><span class="away">NO</span><br/><span class="home">UTAH</span></div><div class="hidden-scores"><span class="away">121</span><br/><span class="home">117</span></div><div class="scores"><span class="away">121</span><br/><span class="home">117</span></div></div><div class="clear"></div><span class="sort">1</span></div></a></li>\n\t\t\t\t\t\t</ul>\n\t\t\t\t\t</div>\n\t\t\t\t</div>\n\n\t\t\t</div>\n\t\t</div>\n\t</div>\n</div>\n\n<script type="text/javascript">\n\n\tvar ESPNootScoreboard = {};\n\n\tESPNootScoreboard.activeSport = \'nba\';\n\n\n\tESPNootScoreboard.myTeams = {\'46-16\': [\'nba-310324006\'], \n\'46-3\': [\'nba-310324026\'], \n\'46-6\': [\'nba-310324006\'], \n\'46-26\': [\'nba-310324026\']};\n\n</script>\n\n\n<script type="text/javascript" src="http://a.espncdn.com/combiner/c?v=201011241739&js=/espn/espn/javascript/gamepackage10/gamepackageOOTJS?sport=nba_en,/espn/espn/javascript/gamepackage10/fixedOOTJS"></script><div class="summary-tabs-container"><div class="span-4" id="gamepackageTop"><div class="status-bar status-final"><p class="game-state">Final  / OT</p><!-- Series at a Glance -->\n\n\t\t\t<script langage="javascript">\n\t\t\t\tjQuery(function($){\n\t\t\t\t\t$("#series-dd-arrow").click(function(){\n\t\t\t\t\t\tif($(\'#series-dd\').is(":hidden")){\n\t\t\t\t\t\t\t$(\'#series-dd\').show();\n\t\t\t\t\t\t}else{\n\t\t\t\t\t\t\t$(\'#series-dd\').hide();\n\t\t\t\t\t\t}\n\t\t\t\t\t\treturn false;\n\t\t\t\t\t});\n\t\t\t\t\t$("#dd-close").click(function(){\n\t\t\t\t\t\t$(\'#series-dd\').hide();\n\t\t\t\t\t\treturn false;\n\t\t\t\t\t});\n\t\t\t\t});\n\t\t\t</script>\n\n\n\t\t\t<div class="series-status"><p>Series (Game 3 of 4)</p><a href="#" class="arrow" id="series-dd-arrow"></a></div><div class="series-dropdown" id="series-dd"><p class="close-link"><a href="#" id="dd-close">Close</a></p><p class="dd-series-status">Series starts 11/24</p><table cellspacing="0" class="dd-game"><tr><th colspan="3"><span>Game 1:</span> Wednesday, November 24th</th></tr><tr><td class="team"><a href="http://espn.go.com/nba/team/_/name/no/new-orleans-hornets " style="color:#000 !important;">Hornets</a></td><td class="score">87</td><td class="dd-game-status" rowspan="2">Final<br/></td></tr><tr><td class="team"><a href="http://espn.go.com/nba/team/_/name/utah/utah-jazz " style="color:#000 !important;">Jazz</a></td><td class="score">105</td></tr><tr><td colspan="3" class="footer-links"><a href=/nba/recap?gameId=301124026>Recap &#187;</a><a href=/nba/boxscore?gameId=301124026>Boxscore &#187;</a></td></tr></table><table cellspacing="0" class="dd-game"><tr><th colspan="3"><span>Game 2:</span> Friday, December 17th</th></tr><tr><td class="team"><a href="http://espn.go.com/nba/team/_/name/utah/utah-jazz " style="color:#000 !important;">Jazz</a></td><td class="score">71</td><td class="dd-game-status" rowspan="2">Final<br/></td></tr><tr><td class="team"><a href="http://espn.go.com/nba/team/_/name/no/new-orleans-hornets " style="color:#000 !important;">Hornets</a></td><td class="score">100</td></tr><tr><td colspan="3" class="footer-links"><a href=/nba/recap?gameId=301217003>Recap &#187;</a><a href=/nba/boxscore?gameId=301217003>Boxscore &#187;</a></td></tr></table><table cellspacing="0" class="dd-game"><tr><th colspan="3"><span>Game 3:</span> Thursday, March 24th</th></tr><tr><td class="team"><a href="http://espn.go.com/nba/team/_/name/no/new-orleans-hornets " style="color:#000 !important;">Hornets</a></td><td class="score">121</td><td class="dd-game-status" rowspan="2">Final<br/>OT</td></tr><tr><td class="team"><a href="http://espn.go.com/nba/team/_/name/utah/utah-jazz " style="color:#000 !important;">Jazz</a></td><td class="score">117</td></tr><tr><td colspan="3" class="footer-links"><a href=/nba/recap?gameId=310324026>Recap &#187;</a><a href=/nba/boxscore?gameId=310324026>Boxscore &#187;</a></td></tr></table><table cellspacing="0" class="dd-game"><tr><th colspan="3"><span>Game 4:</span> Monday, April 11th</th></tr><tr><td class="team"><a href="http://espn.go.com/nba/team/_/name/utah/utah-jazz " style="color:#000 !important;">Jazz</a></td><td class="score">90</td><td class="dd-game-status" rowspan="2">Final<br/></td></tr><tr><td class="team"><a href="http://espn.go.com/nba/team/_/name/no/new-orleans-hornets " style="color:#000 !important;">Hornets</a></td><td class="score">78</td></tr><tr><td colspan="3" class="footer-links"><a href=/nba/recap?gameId=310411003>Recap &#187;</a><a href=/nba/boxscore?gameId=310411003>Boxscore &#187;</a></td></tr></table></div><!-- end Series at a Glance -->\n</div><div class="matchup " id="matchup-nba-310324026"><div class="team away"><div class="logo-medium logo-nba-medium nba-medium-nor"></div><div class="team-info"><h3 abbr="false"><a href="http://espn.go.com/nba/team/_/name/no/new-orleans-hornets">Hornets</a> <span>121</span></h3><p>(41-31, 17-20 away)</p></div></div><div class="team home"><div class="logo-medium logo-nba-medium nba-medium-uth"></div><div class="team-info"><h3><a href="http://espn.go.com/nba/team/_/name/utah/utah-jazz">Jazz</a> <span>117</span></h3><p>(36-37, 20-16 home)</p></div></div></div><div class="game-actions"><ul><li><a href="http://proxy.espn.go.com/mobile/alerts/callout?sportAbbrev=NBA&type=game&id=310324026"><span class="outer"><span class="title" style="position:relative; padding-right: 19px;">Alerts<img src="http://a.espncdn.com/prod/assets/alert_trans_5.png" style="position: absolute; right: 0px; top:4px;" /></span></span></a></li></ul></div><style type="text/css">.game-actions {display:none;}</style><div class="game-vitals"><p style="padding: 8px 0px 0px; float: right; font-size: 11px;">Coverage: <strong>ROOT SPORTS</strong></p><div class="game-time-location"><p>9:00 PM ET, March 24, 2011</p><p>EnergySolutions Arena, Salt Lake City, UT</p></div></div>\n\n\t<!-- begin line score -->\n\t<div class="line-score clear">\n\t\t<div class="line-score-container">\n\t\t\t<table cellspacing="0" class="linescore">\n\t\t\t\t<tr class="periods">\n\t\t\t\t\t<td class="team"></td>\n\n\t\t\t\t\t<td class="period" style="text-align:center" > 1</td><td class="period" style="text-align:center" > 2</td><td class="period" style="text-align:center" > 3</td><td class="period" style="text-align:center" > 4</td><td class="period" style="text-align:center" > OT</td>\n\t\t\t\t\t<td class="total" style="text-align:center">T</td>\n\n\t\t\t\t</tr>\n\n\t\t\t\t<tr><td class="team"><a href="http://espn.go.com/nba/team/_/name/no/new-orleans-hornets">NO</a></td><td style="text-align:center" > 27</td><td style="text-align:center" > 29</td><td style="text-align:center" > 22</td><td style="text-align:center" > 27</td><td style="text-align:center" > 16</td><td class="ts" style="text-align:center">121</td></tr><tr><td class="team"><a href="http://espn.go.com/nba/team/_/name/utah/utah-jazz">UTAH</a></td><td style="text-align:center" > 32</td><td style="text-align:center" > 22</td><td style="text-align:center" > 24</td><td style="text-align:center" > 27</td><td style="text-align:center" > 12</td><td class="ts" style="text-align:center">117</td></tr>\n\t\t\t</table>\n\n\t\t</div>\n\n\t\t<!-- end line score -->\n\n\t\t<div class="game-notes">\n\t\t<p class="heading"><span>Top Performers</span></p><p><span>New Orleans: </span><a href="http://espn.go.com/nba/player/_/id/2779/chris-paul" style="color:#000;">C. Paul</a> 24 Pts, 3 Reb, 12 Ast</p><p><span>Utah: </span><a href="http://espn.go.com/nba/player/_/id/3015/paul-millsap" style="color:#000;">P. Millsap</a> 33 Pts, 11 Reb, 4 Ast, 3 Blk</p>\n\t\t</div>\n\t</div>\n</div><div class="span-2 last" id="gp-adwrap"><div class="ad-box" style="padding:2px 0px; height:250px;">\n\t\t\t<!-- begin ad tag -->\n\t\t\t<script language="JavaScript" type="text/javascript">\n\t\t\tif (typeof ad_kvps != \'undefined\' && typeof ad_u != \'undefined\' && typeof ad_counter != \'undefined\' && typeof ad_ord != \'undefined\') {\n\t\t\t\tif (typeof ad_site == \'undefined\' || typeof ad_zone == \'undefined\') {\n\t\t\t\t\tvar ad_site = \'espn.us.com.nba\';\n\t\t\t\t\tvar ad_zone = \'nbaboxscore\';\n\t\t\t\t}\n\t\t\t\tvar ad_finalString = \'http://ad.Doubleclick.net/adj/\'+ad_site+\'/\'+ad_zone+\';\' +ad_kvps+ \'pos=InContent;\' +ad_u+ \'dcopt=ist;sz=300x600,300x250,1x1;tile=\' +ad_counter+ \';ord=\' +ad_ord;\n\t\t\t\tdocument.write(\'<scr\'+\'ipt src=\'+ad_finalString+\'></scr\'+\'ipt>\');\n\t\t\t\tad_counter++;\n\t\t\t}\n\t\t\t</script>\n\t\t\t<noscript>\n\t\t\t<a href="http://ad.Doubleclick.net/jump/espn.us.com.nba/nbaboxscore;sz=300x600,300x250,1x1;" target="_blank">\n\t\t\t<img src="http://ad.Doubleclick.net/ad/espn.us.com.nba/nbaboxscore;sz=300x600,300x250,1x1;" border="0" alt="">\n\t\t\t</a>\n\t\t\t</noscript>\n\t\t\t<!-- end ad tag -->\n\t\t\t</div></div>\n\t<div class="tabs clear">\n\t\t<ul>\n\n\t<li class="" ><a href="recap?gameId=310324026"><span class="title">Recap</span>\n</a>\n</li><li class="active" ><a href="boxscore?gameId=310324026"><span class="title">Box Score</span>\n</a>\n</li><li class="" ><a href="playbyplay?gameId=310324026"><span class="title">Play-By-Play</span>\n</a>\n</li><li class="" ><a href="shotchart?gameId=310324026"><span class="title">Shot Chart</span>\n</a>\n</li><li class="" ><a href="photos?gameId=310324026"><span class="title">Photos</span>\n<span class="quantity"><span>30</span></span></a>\n</li><li class="" ><a href="conversation?gameId=310324026"><span class="title">Conversation</span>\n<span class="quantity"><span id="comments-on-story-count"></span></span><span class="section140" id="section140logo"><img src="http://a.espncdn.com/gamepackage10/i/section140_logo_tab.png" /></span></a>\n</li></ul></div>\n<link href="http://a.espncdn.com/prod/styles/community/echo.1.2.9.css" rel="stylesheet" charset="utf-8" />\n\n\n<script src="http://a.espncdn.com/combiner/c?js=community/echo/jquery-plugins.0.0.2.js,community/echo/auth.0.1.3.js,community/echo/backplane.0.0.0.js" type="text/javascript"></script>\n<script type="text/javascript">\nvar user_echo = null;\nvar echo_allow_access = false;\n\nvar loadEchoScripts = function(scripts, callback) {\n\twindow.EchoLoader = window.EchoLoader || {\n\t\t"scripts": {},\n\t\t"inProgress": false,\n\t\t"queue": []\n\t};\n\tvar load = function(args) {\n\t\tvar scripts2load = [];\n\t\tjQuery.map(args.scripts, function(script) {\n\t\t\tif (!EchoLoader.scripts[script]) {\n\t\t\t\tscripts2load.push(script);\n\t\t\t\tEchoLoader.scripts[script] = true;\n\t\t\t}\n\t\t});\n\t\tif (!scripts2load.length) {\n\t\t\targs.callback();\n\t\t\tEchoLoader.inProgress = false;\n\t\t\treturn;\n\t\t}\n\t\t// if (window.console) console.log(scripts2load.join(","));\n\t\tjQuery.getScript("http://a.espncdn.com/combiner/c?js=" + scripts2load.join(","), function() {\n\t\t\targs.callback();\n\t\t\tEchoLoader.inProgress = false;\n\t\t\tif (EchoLoader.queue.length) {\n\t\t\t\tload(EchoLoader.queue.shift());\n\t\t\t}\n\t\t});\n\t};\n\tEchoLoader.queue.push({\n\t\t"scripts": scripts,\n\t\t"callback": callback\n\t});\n\tif (!EchoLoader.inProgress) {\n\t\tEchoLoader.inProgress = true;\n\t\tload(EchoLoader.queue.shift());\n\t}\n};\n\nif (espn.core.loggedIn) {\n\tvar echo_swid = espn.core.SWID.replace(/({|-|})/g,\'\');;\n\tvar echo_bpid = espn.cookie.get(\'backplane-id\');\n\tvar echo_grif = espn.cookie.get(\'grif\');\n\tif (echo_grif == null) {\n\t\techo_allow_access = true;\n\t}\n\tBackplane.resetCookieChannel();\n\tBackplane.init({\n\t\t"serverBaseURL" : "https://api.echoenabled.com/v1",\n\t\t"busName": "espn.go.com",\n\t\t"channelName": espn.cookie.get(\'backplane-id\')\n\t});\n\tvar backplane_confirmation = false;\n\tvar backplane_subscription = Backplane.subscribe(function(message) {\n\t\tif (message.type == "identity/ack") {\n\t\t\tbackplane_confirmation = true;\n\t\t\tBackplane.unsubscribe(backplane_subscription);\n\t\t}\n\t});\n\tuser_echo = new Echo.User({"appkey": "dev.espn.go.com"});\n\tuser_echo.init(function() {\n\t\tif (user_echo.logged()) {\n\t\t\techo_bpid = echo_bpid.substr(18, echo_bpid.length);\n\t\t\tif (echo_swid != echo_bpid) {\n\t\t\t\tuser_echo.logout();\n\t\t\t}\n\t\t} else {\n\t\t\tif (backplane_confirmation) {\n\t\t\t\tuser_echo._global("set", "state", "init");\n\t\t\t\tuser_echo.init();\n\t\t\t} else {\n\t\t\t\tBackplane.expectMessages(["identity/ack"]);\n\t\t\t\tif (!user_echo.logged()) {\n\t\t\t\t\tvar echo_random = (new Date()).valueOf().toString() + Math.random().toString().substr(2, 5) + echo_swid;\n\t\t\t\t\tBackplane.config.customChannelName = echo_random;\n\t\t\t\t\tBackplane.resetCookieChannel();\n\t\t\t\t\tespn.cookie.set(\'backplane-id\',echo_random);\n\t\t\t\t\tespn.cookie.set(\'bp_channel_id\',Backplane.getChannelID());\n\t\t\t\t\tjQuery.get(\'https://r.espn.go.com/members/util/echoAuthenticate\', null, null, \'jsonp\');\n\t\t\t\t}\n\t\t\t}\n\t\t}\n\t});\n} else {\n\tuser_echo = new Echo.User({"appkey": "dev.espn.go.com"});\n\tuser_echo.init(function() { if (user_echo.logged()) { user_echo.logout(); } });\n}\n\nEcho.Broadcast.subscribe("Submit.onPostComplete", function(topic, data) {\n\tif (typeof window.anTrackEvent == \'function\') anTrackEvent(\'\', \'new_comment\', \'\');\n});\n</script>\n\n\n<script type="text/javascript">\nloadEchoScripts(["community/echo/counter.0.1.4.js"], function() {\n\tnew Echo.Counter({\n\t\t"target":document.getElementById("comments-on-story-count"),\n\t\t"appkey":"dev.espn.go.com",\n\t\t"query":"childrenof:http://scores.espn.go.com/nba/conversation?gameId=310324026 source:espn.go.com,ESPN type:comment state:Untouched,ModeratorApproved -user.state:ModeratorBanned,ModeratorDeleted children source:espn.go.com,ESPN type:comment state:Untouched,ModeratorApproved -user.state:ModeratorBanned,ModeratorDeleted",\n\t\t"liveUpdates": false\n\t});\n});\n</script>\n</div><div class="story-container"><div class="gp-body">\n\t\t\t<!-- begin ad tag -->\n\t\t\t<script language="JavaScript" type="text/javascript">\n\t\t\tif (typeof ad_kvps != \'undefined\' && typeof ad_u != \'undefined\' && typeof ad_counter != \'undefined\' && typeof ad_ord != \'undefined\') {\n\t\t\t\tif (typeof ad_site == \'undefined\' || typeof ad_zone == \'undefined\') {\n\t\t\t\t\tvar ad_site = \'espn.us.com.nba\';\n\t\t\t\t\tvar ad_zone = \'nbaboxscore\';\n\t\t\t\t}\n\t\t\t\tvar ad_finalString = \'http://ad.Doubleclick.net/adj/\'+ad_site+\'/\'+ad_zone+\';\' +ad_kvps+ \'pos=PresentedByLogo;\' +ad_u+ \'sz=200x45,1x1;tile=\' +ad_counter+ \';ord=\' +ad_ord;\n\t\t\t\tdocument.write(\'<scr\'+\'ipt src=\'+ad_finalString+\'></scr\'+\'ipt>\');\n\t\t\t\tad_counter++;\n\t\t\t}\n\t\t\t</script>\n\t\t\t<noscript>\n\t\t\t<a href="http://ad.Doubleclick.net/jump/espn.us.com.nba/nbaboxscore;sz=200x45,1x1;" target="_blank">\n\t\t\t<img src="http://ad.Doubleclick.net/ad/espn.us.com.nba/nbaboxscore;sz=200x45,1x1;" border="0" alt="">\n\t\t\t</a>\n\t\t\t</noscript>\n\t\t\t<!-- end ad tag -->\n\t\t\t<div class="mod-container mod-no-header-footer mod-open mod-open-gamepack mod-box" id="my-players-table"><div class="mod-content"><table border="0" width="100%" class="mod-data"><thead><tr class="team-color-strip"><th style="border-bottom-color: #0093B1; text-align: left; font: 700 14px/25px Helvetica,Arial,sans-serif;" colspan="15"><div style="margin-right: 6px;" class="logo-small logo-nba-small nba-small-nor floatleft"></div><a name="New Orleans"></a>New Orleans Hornets</th></tr><tr align="right">\n<th style="text-align:left;">STARTERS</th>\n<th width=5%>MIN</th>\n<th width=7% nowrap>FGM-A</th>\n<th width=7%>3PM-A</th>\n<th width=7%>FTM-A</th>\n<th width=6%>OREB</th>\n<th width=6%>DREB</th>\n<th width=6%>REB</th>\n<th width=6%>AST</th>\n<th width=6%>STL</th>\n<th width=6%>BLK</th>\n<th width=6%>TO</th>\n<th width=6%>PF</th>\n<th width=6%>+/-</th>\n<th width=6%>PTS</th>\n</tr>\n</thead><tbody><tr align="right" class="odd player-46-2177">\n<td style="text-align:left;" nowrap><a href="http://espn.go.com/nba/player/_/id/2177/david-west">David West</a>, PF</td><td>38</td><td>12-25</td><td>0-0</td><td>5-6</td><td>2</td><td>1</td><td>3</td><td>0</td><td>1</td><td>1</td><td>2</td><td>4</td><td>-5</td><td>29</td></tr><tr align="right" class="even player-46-2426">\n<td style="text-align:left;" nowrap><a href="http://espn.go.com/nba/player/_/id/2426/trevor-ariza">Trevor Ariza</a>, SF</td><td>48</td><td>5-9</td><td>3-5</td><td>1-3</td><td>0</td><td>9</td><td>9</td><td>2</td><td>4</td><td>1</td><td>1</td><td>3</td><td>+5</td><td>14</td></tr><tr align="right" class="odd player-46-2399">\n<td style="text-align:left;" nowrap><a href="http://espn.go.com/nba/player/_/id/2399/emeka-okafor">Emeka Okafor</a>, C</td><td>30</td><td>5-8</td><td>0-0</td><td>2-2</td><td>2</td><td>4</td><td>6</td><td>3</td><td>0</td><td>1</td><td>1</td><td>3</td><td>+12</td><td>12</td></tr><tr align="right" class="even player-46-2779">\n<td style="text-align:left;" nowrap><a href="http://espn.go.com/nba/player/_/id/2779/chris-paul">Chris Paul</a>, PG</td><td>44</td><td>8-15</td><td>0-2</td><td>8-9</td><td>1</td><td>2</td><td>3</td><td>12</td><td>0</td><td>0</td><td>1</td><td>1</td><td>+10</td><td>24</td></tr><tr align="right" class="odd player-46-3190">\n<td style="text-align:left;" nowrap><a href="http://espn.go.com/nba/player/_/id/3190/marco-belinelli">Marco Belinelli</a>, SG</td><td>28</td><td>5-8</td><td>3-4</td><td>1-1</td><td>0</td><td>2</td><td>2</td><td>4</td><td>2</td><td>0</td><td>0</td><td>4</td><td>+1</td><td>14</td></tr></tbody><thead><tr align="right">\n<th style="text-align:left;">BENCH</th>\n<th width=5%>MIN</th>\n<th width=7% nowrap>FGM-A</th>\n<th width=7%>3PM-A</th>\n<th width=7%>FTM-A</th>\n<th width=6%>OREB</th>\n<th width=6%>DREB</th>\n<th width=6%>REB</th>\n<th width=6%>AST</th>\n<th width=6%>STL</th>\n<th width=6%>BLK</th>\n<th width=6%>TO</th>\n<th width=6%>PF</th>\n<th width=6%>+/-</th>\n<th width=6%>PTS</th>\n</tr>\n</thead><tbody><tr align="right" class="even player-46-2004">\n<td style="text-align:left;" nowrap><a href="http://espn.go.com/nba/player/_/id/2004/willie-green">Willie Green</a>, SG</td><td>9</td><td>0-2</td><td>0-0</td><td>0-0</td><td>0</td><td>1</td><td>1</td><td>0</td><td>0</td><td>0</td><td>0</td><td>0</td><td>-5</td><td>0</td></tr><tr align="right" class="odd player-46-2768">\n<td style="text-align:left;" nowrap><a href="http://espn.go.com/nba/player/_/id/2768/jarrett-jack">Jarrett Jack</a>, PG</td><td>30</td><td>5-11</td><td>1-2</td><td>4-5</td><td>0</td><td>3</td><td>3</td><td>2</td><td>1</td><td>0</td><td>0</td><td>2</td><td>+1</td><td>15</td></tr><tr align="right" class="even player-46-3207">\n<td style="text-align:left;" nowrap><a href="http://espn.go.com/nba/player/_/id/3207/aaron-gray">Aaron Gray</a>, C</td><td>20</td><td>3-5</td><td>0-0</td><td>4-5</td><td>5</td><td>3</td><td>8</td><td>2</td><td>0</td><td>0</td><td>0</td><td>1</td><td>+7</td><td>10</td></tr><tr align="right" class="odd player-46-3232">\n<td style="text-align:left;" nowrap><a href="http://espn.go.com/nba/player/_/id/3232/jason-smith">Jason Smith</a>, PF</td><td>4</td><td>0-0</td><td>0-0</td><td>0-0</td><td>0</td><td>0</td><td>0</td><td>0</td><td>0</td><td>0</td><td>0</td><td>0</td><td>-6</td><td>0</td></tr><tr align="right" class="even player-46-3217">\n<td style="text-align:left;" nowrap><a href="http://espn.go.com/nba/player/_/id/3217/carl-landry">Carl Landry</a>, PF</td><td>14</td><td>0-3</td><td>0-0</td><td>3-4</td><td>1</td><td>0</td><td>1</td><td>0</td><td>0</td><td>0</td><td>2</td><td>2</td><td>0</td><td>3</td></tr><tr align="right" class="odd player-46-4253">\n<td style="text-align:left;" nowrap><a href="http://espn.go.com/nba/player/_/id/4253/quincy-pondexter">Quincy Pondexter</a>, SF</td><td colspan="14" style="text-align: center;">DNP COACH\'S DECISION</td></tr><tr align="right" class="even player-46-4205">\n<td style="text-align:left;" nowrap><a href="http://espn.go.com/nba/player/_/id/4205/david-andersen">David Andersen</a>, C</td><td colspan="14" style="text-align: center;">DNP COACH\'S DECISION</td></tr></tbody><thead><tr align="right"><th style="text-align:left;">TOTALS</th><th></th>\n<th nowrap>FGM-A</th>\n<th>3PM-A</th>\n<th>FTM-A</th>\n<th>OREB</td>\n<th>DREB</th>\n<th>REB</th>\n<th>AST</th>\n<th>STL</th>\n<th>BLK</th>\n<th>TO</th>\n<th>PF</th>\n<th width=6%>&nbsp;</th>\n<th>PTS</th>\n</tr>\n</thead><tbody><tr align="right" class="odd"><td style="text-align:left;" colspan="2"></td><td><strong>43-86</strong></td><td><strong>7-13</strong></td><td><strong>28-35</strong></td><td><strong>11</strong></td><td><strong>25</strong></td><td><strong>36</strong></td><td><strong>25</strong></td><td><strong>8</strong></td><td><strong>3</strong></td><td><strong>7</strong></td><td><strong>20</strong></td><td>&nbsp;</td><td><strong>121</strong></td></tr><tr align="right" class="even"><td style="text-align:left;" colspan="2"></td><td><strong>50.0%</strong></td><td><strong>53.8%</strong></td><td><strong>80.0%</strong></td><td colspan="10"></td></tr><tr class="odd"><td align="right" colspan="15" style="padding:10px;"><div style="float: right;"><strong>Fast break points:</strong>&nbsp;&nbsp;&nbsp;5<br /><strong>Points in the paint:</strong>&nbsp;&nbsp;&nbsp;44<br /><strong>Team TO ( points off ):</strong>&nbsp;&nbsp;&nbsp;7 (8)</div><div style="float: left;">+/- denotes team\'s net points while the player is on the court.</div></td></tr></tbody><thead><tr class="team-color-strip"><th style="border-bottom-color: #06143F; text-align: left; font: 700 14px/25px Helvetica,Arial,sans-serif;" colspan="15"><div style="margin-right: 6px;" class="logo-small logo-nba-small nba-small-uth floatleft"></div><a name="Utah"></a>Utah Jazz</th></tr><tr align="right">\n<th style="text-align:left;">STARTERS</th>\n<th width=5%>MIN</th>\n<th width=7% nowrap>FGM-A</th>\n<th width=7%>3PM-A</th>\n<th width=7%>FTM-A</th>\n<th width=6%>OREB</th>\n<th width=6%>DREB</th>\n<th width=6%>REB</th>\n<th width=6%>AST</th>\n<th width=6%>STL</th>\n<th width=6%>BLK</th>\n<th width=6%>TO</th>\n<th width=6%>PF</th>\n<th width=6%>+/-</th>\n<th width=6%>PTS</th>\n</tr>\n</thead><tbody><tr align="right" class="odd player-46-3015">\n<td style="text-align:left;" nowrap><a href="http://espn.go.com/nba/player/_/id/3015/paul-millsap">Paul Millsap</a>, PF</td><td>40</td><td>13-20</td><td>0-0</td><td>7-8</td><td>5</td><td>6</td><td>11</td><td>4</td><td>0</td><td>3</td><td>1</td><td>6</td><td>-3</td><td>33</td></tr><tr align="right" class="even player-46-2778">\n<td style="text-align:left;" nowrap><a href="http://espn.go.com/nba/player/_/id/2778/cj-miles">C.J. Miles</a>, SF</td><td>22</td><td>5-12</td><td>0-4</td><td>1-1</td><td>0</td><td>4</td><td>4</td><td>2</td><td>0</td><td>1</td><td>0</td><td>4</td><td>+3</td><td>11</td></tr><tr align="right" class="odd player-46-2389">\n<td style="text-align:left;" nowrap><a href="http://espn.go.com/nba/player/_/id/2389/al-jefferson">Al Jefferson</a>, C</td><td>37</td><td>11-17</td><td>0-0</td><td>0-0</td><td>5</td><td>8</td><td>13</td><td>2</td><td>1</td><td>1</td><td>3</td><td>3</td><td>-9</td><td>22</td></tr><tr align="right" class="even player-46-1027">\n<td style="text-align:left;" nowrap><a href="http://espn.go.com/nba/player/_/id/1027/earl-watson">Earl Watson</a>, PG</td><td>41</td><td>5-9</td><td>3-4</td><td>1-2</td><td>1</td><td>2</td><td>3</td><td>8</td><td>1</td><td>1</td><td>0</td><td>4</td><td>+3</td><td>14</td></tr><tr align="right" class="odd player-46-49">\n<td style="text-align:left;" nowrap><a href="http://espn.go.com/nba/player/_/id/49/raja-bell">Raja Bell</a>, SG</td><td>45</td><td>3-11</td><td>2-5</td><td>5-6</td><td>0</td><td>5</td><td>5</td><td>1</td><td>1</td><td>0</td><td>2</td><td>3</td><td>-7</td><td>13</td></tr></tbody><thead><tr align="right">\n<th style="text-align:left;">BENCH</th>\n<th width=5%>MIN</th>\n<th width=7% nowrap>FGM-A</th>\n<th width=7%>3PM-A</th>\n<th width=7%>FTM-A</th>\n<th width=6%>OREB</th>\n<th width=6%>DREB</th>\n<th width=6%>REB</th>\n<th width=6%>AST</th>\n<th width=6%>STL</th>\n<th width=6%>BLK</th>\n<th width=6%>TO</th>\n<th width=6%>PF</th>\n<th width=6%>+/-</th>\n<th width=6%>PTS</th>\n</tr>\n</thead><tbody><tr align="right" class="even player-46-2807">\n<td style="text-align:left;" nowrap><a href="http://espn.go.com/nba/player/_/id/2807/ronnie-price">Ronnie Price</a>, PG</td><td>15</td><td>2-3</td><td>2-2</td><td>2-2</td><td>1</td><td>0</td><td>1</td><td>1</td><td>1</td><td>0</td><td>2</td><td>0</td><td>-1</td><td>8</td></tr><tr align="right" class="odd player-46-4295">\n<td style="text-align:left;" nowrap><a href="http://espn.go.com/nba/player/_/id/4295/jeremy-evans">Jeremy Evans</a>, SF</td><td>12</td><td>0-0</td><td>0-0</td><td>1-2</td><td>0</td><td>0</td><td>0</td><td>0</td><td>0</td><td>0</td><td>0</td><td>0</td><td>+2</td><td>1</td></tr><tr align="right" class="even player-46-4249">\n<td style="text-align:left;" nowrap><a href="http://espn.go.com/nba/player/_/id/4249/gordon-hayward">Gordon Hayward</a>, SG</td><td>37</td><td>4-9</td><td>1-3</td><td>4-4</td><td>0</td><td>3</td><td>3</td><td>5</td><td>0</td><td>3</td><td>1</td><td>1</td><td>-10</td><td>13</td></tr><tr align="right" class="odd player-46-4257">\n<td style="text-align:left;" nowrap><a href="http://espn.go.com/nba/player/_/id/4257/derrick-favors">Derrick Favors</a>, FC</td><td>17</td><td>1-5</td><td>0-0</td><td>0-0</td><td>1</td><td>2</td><td>3</td><td>0</td><td>1</td><td>1</td><td>2</td><td>1</td><td>+2</td><td>2</td></tr><tr align="right" class="even player-46-2382">\n<td style="text-align:left;" nowrap><a href="http://espn.go.com/nba/player/_/id/2382/devin-harris">Devin Harris</a>, PG</td><td colspan="14" style="text-align: center;">DNP STRAINED RIGHT HAMSTRING</td></tr><tr align="right" class="odd player-46-234">\n<td style="text-align:left;" nowrap><a href="http://espn.go.com/nba/player/_/id/234/francisco-elson">Francisco Elson</a>, C</td><td colspan="14" style="text-align: center;">DNP COACH\'S DECISION</td></tr><tr align="right" class="even player-46-3205">\n<td style="text-align:left;" nowrap><a href="http://espn.go.com/nba/player/_/id/3205/kyrylo-fesenko">Kyrylo Fesenko</a>, C</td><td colspan="14" style="text-align: center;">DNP COACH\'S DECISION</td></tr></tbody><thead><tr align="right"><th style="text-align:left;">TOTALS</th><th></th>\n<th nowrap>FGM-A</th>\n<th>3PM-A</th>\n<th>FTM-A</th>\n<th>OREB</td>\n<th>DREB</th>\n<th>REB</th>\n<th>AST</th>\n<th>STL</th>\n<th>BLK</th>\n<th>TO</th>\n<th>PF</th>\n<th width=6%>&nbsp;</th>\n<th>PTS</th>\n</tr>\n</thead><tbody><tr align="right" class="odd"><td style="text-align:left;" colspan="2"></td><td><strong>44-86</strong></td><td><strong>8-18</strong></td><td><strong>21-25</strong></td><td><strong>13</strong></td><td><strong>30</strong></td><td><strong>43</strong></td><td><strong>23</strong></td><td><strong>5</strong></td><td><strong>10</strong></td><td><strong>11</strong></td><td><strong>22</strong></td><td>&nbsp;</td><td><strong>117</strong></td></tr><tr align="right" class="even"><td style="text-align:left;" colspan="2"></td><td><strong>51.2%</strong></td><td><strong>44.4%</strong></td><td><strong>84.0%</strong></td><td colspan="10"></td></tr><tr class="odd"><td align="right" colspan="15" style="padding:10px;"><div style="float: right;"><strong>Fast break points:</strong>&nbsp;&nbsp;&nbsp;5<br /><strong>Points in the paint:</strong>&nbsp;&nbsp;&nbsp;42<br /><strong>Team TO ( points off ):</strong>&nbsp;&nbsp;&nbsp;13 (20)</div><div style="float: left;">+/- denotes team\'s net points while the player is on the court.</div></td></tr></tbody></table></div></div><p></p><strong>Flagrant Fouls:</strong> None<br><strong>Technical Fouls:</strong> PLAYERS: None - TEAMS (def3sec): UTAH (1), NEWORLEANS (1) - COACHES: None<br><strong>Officials:</strong> Ron Garretson , Mark Lindsay , Pat Fraher <br><strong>Attendance:</strong> 18,840<br><strong>Time of Game:</strong> 02:38<br><p></p></BODY><!-- begin sp links -->\n<div style="margin: 10px 0 0 0;">\n<!-- redesignContent=scoreboard-bottom:614w300h--><!-- sport=nba--><!-- begin sponsored links2 09scoreboard614, nba --><!-- values={pid=2187774, placementId=1508117, height=300, width=614}--><div style="margin:0px 0px 5px 0px;"><script type="text/javascript">adsonar_placementId=1508117;adsonar_pid=2187774;adsonar_ps=-1;adsonar_zw=614;adsonar_zh=300;adsonar_jv=\'ads.espn.adsonar.com\';</script><script language="JavaScript" src="http://js.adsonar.com/js/adsonar.js"></script></div></div>\n<!-- end sp links -->\n</div><!-- end gp-body --><div class="clear"></div></div></div></div>\n<div id="nav-wrapper" class="container">\n<div id="nav-wrapper-container">\n<div id="nav-main">\n<!-- begin site nav -->\n<ul class="top">\n<!-- begin site nav -->\n<!-- begin site nav -->\n<ul id="nav-main-list" class="top">\n\t<!-- start: Menuitem :: MyTAB -->\n\t<li id="menu-myespn" class="last myespn">\n\t\t<a class="myespn" ref="#">MyESPN</a>\n\t</li>\n\t<!-- start: Menuitem :: NFL -->\n\t<li id="menu-nfl" class="sport-menu default t-nfl" data-sportid="28">\n\t\t<a href="http://espn.go.com/nfl/" name="&amp;lpos=sitenavdefault&amp;lid=sitenav_nfl">NFL</a>\n\t</li>\n\t<!-- start: Menuitem :: MLB -->\n\t<li id="menu-mlb" class="sport-menu default t-mlb" data-sportid="10">\n\t\t<a href="http://espn.go.com/mlb/" name="&amp;lpos=sitenavdefault&amp;lid=sitenav_mlb">MLB</a>\n\t</li>\n\t<!-- start: Menuitem :: NBA -->\n\t<li id="menu-nba" class="sport-menu default t-nba selected" data-sportid="46">\n\t\t<a href="http://espn.go.com/nba/" name="&amp;lpos=sitenavdefault&amp;lid=sitenav_nba">NBA</a>\n\t</li>\n\t<!-- start: Menuitem :: NHL -->\n\t<li id="menu-nhl" class="sport-menu default t-nhl" data-sportid="90">\n\t\t<a href="http://espn.go.com/nhl/" name="&amp;lpos=sitenavdefault&amp;lid=sitenav_nhl">NHL</a>\n\t</li>\n\t<!-- start: Menuitem :: NCAA FB -->\n\t<li id="menu-ncf" class="sport-menu default t-ncf" data-sportid="23">\n\t\t<a href="http://espn.go.com/college-football/" name="&amp;lpos=sitenavdefault&amp;lid=sitenav_ncf">NCAA FB</a>\n\t</li>\n\t<!-- start: Menuitem :: NCAA BB -->\n\t<li id="menu-ncb" class="sport-menu default t-ncb" data-sportid="41">\n\t\t<a href="http://espn.go.com/mens-college-basketball/" name="&amp;lpos=sitenavdefault&amp;lid=sitenav_ncb">NCAA BB</a>\n\t</li>\n\t<!-- start: Menuitem :: NASCAR -->\n\t<li id="menu-nascar" class="sport-menu default t-nascar" data-sportid="2020">\n\t\t<a href="http://espn.go.com/racing/nascar/" name="&amp;lpos=sitenavdefault&amp;lid=sitenav_nascar">NASCAR</a>\n\t</li>\n\t<!-- start: Menuitem :: SOCCER -->\n\t<li id="menu-soccer" class="sport-menu default t-soccer" data-sportid="600">\n\t\t<a href="http://espn.go.com/sports/soccer/" name="&amp;lpos=sitenavdefault&amp;lid=sitenav_soccer">SOCCER</a>\n\t</li>\n\t<!-- start: Menuitem :: GOLF -->\n\t<li id="menu-golf" class="sport-menu t-golf" data-sportid="1106" style="display: none;">\n\t\t<a href="http://espn.go.com/golf/" name="&amp;lpos=sitenavdefault&amp;lid=sitenav_golfl">GOLF</a>\n\t</li>\n\t<!-- start: Menuitem :: TENNIS -->\n\t<li id="menu-tennis" class="sport-menu t-tennis" data-sportid="850" style="display: none;">\n\t\t<a href="http://espn.go.com/tennis/" name="&amp;lpos=sitenavdefault&amp;lid=sitenav_tennis">TENNIS</a>\n\t</li>\n\t<!-- start: Menuitem :: BOXING-->\n\t<li id="menu-boxing" class="sport-menu t-boxing" data-sportid="1000" style="display: none;">\n\t\t<a href="http://espn.go.com/boxing/" name="&amp;lpos=sitenavdefault&amp;lid=sitenav_boxing">BOXING</a>\n\t</li>\n\t<!-- start: Menuitem :: MMA -->\n\t<li id="menu-mma" class="sport-menu t-mma" data-sportid="3301" style="display: none;">\n\t\t<a href="http://espn.go.com/mma/" name="&amp;lpos=sitenavdefault&amp;lid=sitenav_mma">MMA</a>\n\t</li>\n\t<!-- start: Menuitem :: ALL SPORTS -->\n\t<li id="menu-allsports" class="nav-allsports t-allsports">\n\t\t<a href="http://espn.go.com/sports/" name="&amp;lpos=sitenavdefault&amp;lid=sitenav_allsports">MORE SPORTS</a>\n\t</li>\n\t<!-- start: Menuitem :: INSIDER -->\n\t<li id="menu-insider" class="sport-menu t-insider" style="display: none;">\n\t\t<a href="http://insider.espn.go.com/insider/index" name="&amp;lpos=sitenavdefault&amp;lid=sitenav_insider">INSIDER</a>\n\t</li>\n\t<!-- start: Menuitem :: SPORTSNATION -->\n\t<li id="menu-sportsnation" class="sport-menu t-sportsnation" style="display: none;">\n\t\t<a href="http://espn.go.com/sportsnation/" name="&amp;lpos=sitenavdefault&amp;lid=sitenav_sportsnation">SN</a>\n\t</li>\n\t<!-- start: Menuitem :: RADIO & MORE -->\n\t<li id="menu-radio" class="right-menu two-line last t-radio">\n\t<a href="http://espn.go.com/espnradio/" name="&amp;lpos=sitenavdefault&amp;lid=sitenav_radioandmore">RADIO<span>& MORE</span></a>\n\t</li>\n\t<!-- start: Menuitem :: espnW & P2 -->\n\t<li id="menu-page2" class="right-menu two-line t-page2">\n\t<a href="http://espn.go.com/espnw/" name="&lpos=sitenavdefault&lid=sitenav_espnwandp2" target="_blank">espnW<span>& PAGE 2</span></a>\n\t</li>\n\t<!-- start: Menuitem :: FANTASY & GAMES -->\n\t<li id="menu-fantasy" class="right-menu two-line t-fantasy">\n\t\t<a href="http://games.espn.go.com/frontpage" name="&amp;lpos=sitenavdefault&amp;lid=sitenav_fantasy">FANTASY<span>& GAMES</span></a>\n\t</li>\n\t<!-- start: Menuitem :: WATCH -->\n\t<li id="menu-watch" class="right-menu t-watch">\n\t\t<a href="http://espn.go.com/video/" name="&amp;lpos=sitenavdefault&amp;lid=sitenav_watch">WATCH</a>\n\t</li>\n</ul>\n<!-- end site nav -->\n<!-- end site nav -->\n</ul>\n<!-- end site nav -->\n</div>\n<div class="nav-main-secondary">\n<!--/nba/boxscore--><ul>\n<li><a href="http://espn.go.com/nba/"name="&lpos=subnav&lid=subnav_NBA_NBA+Home">NBA Home</a></li><li><a href="http://scores.espn.go.com/nba/scoreboard"name="&lpos=subnav&lid=subnav_NBA_Scoreboard">Scores</a></li><li><a href="http://espn.go.com/nba/schedule"name="&lpos=subnav&lid=subnav_NBA_NBA+Schedule">Schedule</a></li><li><a href="http://espn.go.com/nba/standings"name="&lpos=subnav&lid=subnav_NBA_Standings">Standings</a></li><li><a href="http://espn.go.com/nba/hollinger/powerrankings">Rankings</a></li><li class="expandable"><a href="http://espn.go.com/nba/teams" name="&lpos=subnav&lid=subnav_NBA_Teams"><span>Teams</span></a><div><dl><dt class="first">Atlantic</dt><dd><a href="http://espn.go.com/nba/team/_/name/bos/boston-celtics" name="&lpos=subnav&lid=subnav_NBA_Teams_bos">Boston Celtics</a></dd><dd><a href="http://espn.go.com/nba/team/_/name/nj/new-jersey-nets" name="&lpos=subnav&lid=subnav_NBA_Teams_nj">New Jersey Nets</a></dd><dd><a href="http://espn.go.com/nba/team/_/name/ny/new-york-knicks" name="&lpos=subnav&lid=subnav_NBA_Teams_ny">New York Knicks</a></dd><dd><a href="http://espn.go.com/nba/team/_/name/phi/philadelphia-76ers" name="&lpos=subnav&lid=subnav_NBA_Teams_phi">Philadelphia 76ers</a></dd><dd><a href="http://espn.go.com/nba/team/_/name/tor/toronto-raptors" name="&lpos=subnav&lid=subnav_NBA_Teams_tor">Toronto Raptors</a></dd><dt class="first">Central</dt><dd><a href="http://espn.go.com/nba/team/_/name/chi/chicago-bulls" name="&lpos=subnav&lid=subnav_NBA_Teams_chi">Chicago Bulls</a></dd><dd><a href="http://espn.go.com/nba/team/_/name/cle/cleveland-cavaliers" name="&lpos=subnav&lid=subnav_NBA_Teams_cle">Cleveland Cavaliers</a></dd><dd><a href="http://espn.go.com/nba/team/_/name/det/detroit-pistons" name="&lpos=subnav&lid=subnav_NBA_Teams_det">Detroit Pistons</a></dd><dd><a href="http://espn.go.com/nba/team/_/name/ind/indiana-pacers" name="&lpos=subnav&lid=subnav_NBA_Teams_ind">Indiana Pacers</a></dd><dd><a href="http://espn.go.com/nba/team/_/name/mil/milwaukee-bucks" name="&lpos=subnav&lid=subnav_NBA_Teams_mil">Milwaukee Bucks</a></dd><dt class="first">Southeast</dt><dd><a href="http://espn.go.com/nba/team/_/name/atl/atlanta-hawks" name="&lpos=subnav&lid=subnav_NBA_Teams_atl">Atlanta Hawks</a></dd><dd><a href="http://espn.go.com/nba/team/_/name/cha/charlotte-bobcats" name="&lpos=subnav&lid=subnav_NBA_Teams_cha">Charlotte Bobcats</a></dd><dd><a href="http://espn.go.com/nba/team/_/name/mia/miami-heat" name="&lpos=subnav&lid=subnav_NBA_Teams_mia">Miami Heat</a></dd><dd><a href="http://espn.go.com/nba/team/_/name/orl/orlando-magic" name="&lpos=subnav&lid=subnav_NBA_Teams_orl">Orlando Magic</a></dd><dd><a href="http://espn.go.com/nba/team/_/name/wsh/washington-wizards" name="&lpos=subnav&lid=subnav_NBA_Teams_was">Washington Wizards</a></dd></dl><dl class="last"><dt class="first">Pacific</dt><dd><a href="http://espn.go.com/nba/team/_/name/gs/golden-state-warriors" name="&lpos=subnav&lid=subnav_NBA_Teams_gs">Golden State Warriors</a></dd><dd><a href="http://espn.go.com/nba/team/_/name/lac/los-angeles-clippers" name="&lpos=subnav&lid=subnav_NBA_Teams_lac">Los Angeles Clippers</a></dd><dd><a href="http://espn.go.com/nba/team/_/name/lal/los-angeles-lakers" name="&lpos=subnav&lid=subnav_NBA_Teams_lal">Los Angeles Lakers</a></dd><dd><a href="http://espn.go.com/nba/team/_/name/phx/phoenix-suns" name="&lpos=subnav&lid=subnav_NBA_Teams_phx">Phoenix Suns</a></dd><dd><a href="http://espn.go.com/nba/team/_/name/sac/sacramento-kings" name="&lpos=subnav&lid=subnav_NBA_Teams_sac">Sacramento Kings</a></dd><dt class="first">Southwest</dt><dd><a href="http://espn.go.com/nba/team/_/name/dal/dallas-mavericks" name="&lpos=subnav&lid=subnav_NBA_Teams_dal">Dallas Mavericks</a></dd><dd><a href="http://espn.go.com/nba/team/_/name/hou/houston-rockets" name="&lpos=subnav&lid=subnav_NBA_Teams_hou">Houston Rockets</a></dd><dd><a href="http://espn.go.com/nba/team/_/name/mem/memphis-grizzlies" name="&lpos=subnav&lid=subnav_NBA_Teams_mem">Memphis Grizzlies</a></dd><dd><a href="http://espn.go.com/nba/team/_/name/no/new-orleans-hornets" name="&lpos=subnav&lid=subnav_NBA_Teams_no">New Orleans Hornets</a></dd><dd><a href="http://espn.go.com/nba/team/_/name/sa/san-antonio-spurs" name="&lpos=subnav&lid=subnav_NBA_Teams_sa">San Antonio Spurs</a></dd><dt class="first">Northwest</dt><dd><a href="http://espn.go.com/nba/team/_/name/den/denver-nuggets" name="&lpos=subnav&lid=subnav_NBA_Teams_den">Denver Nuggets</a></dd><dd><a href="http://espn.go.com/nba/team/_/name/min/minnesota-timberwolves" name="&lpos=subnav&lid=subnav_NBA_Teams_min">Minnesota Timberwolves</a></dd><dd><a href="http://espn.go.com/nba/team/_/name/okc/oklahoma-city-thunder" name="&lpos=subnav&lid=subnav_NBA_Teams_okc">Oklahoma City Thunder</a></dd><dd><a href="http://espn.go.com/nba/team/_/name/por/portland-trail-blazers" name="&lpos=subnav&lid=subnav_NBA_Teams_por">Portland Trail Blazers</a></dd><dd><a href="http://espn.go.com/nba/team/_/name/utah/utah-jazz" name="&lpos=subnav&lid=subnav_NBA_Teams_uth">Utah Jazz</a></dd></dl></div></li><li><a href="http://espn.go.com/nba/draft"name="&lpos=subnav&lid=subnav_NBA_Draft">Draft</a></li> <li><a href="http://espn.go.com/nba/players"name="&lpos=subnav&lid=subnav_NBA_Players">Players</a></li><li><a href="http://espn.go.com/nba/statistics"name="&lpos=subnav&lid=subnav_NBA_Stats">Stats</a></li><li><a href="http://espn.go.com/nba/truehoop/miamiheat"name="&lpos=subnav&lid=subnav_Heat_Index">Heat Index</a></li><li><a href="http://espn.go.com/blog/truehoop"name="&lpos=subnav&lid=subnav_NBA_TrueHoop">TrueHoop</a></li><li><a href="http://sports.espn.go.com/nba/dailydime"name="&lpos=subnav&lid=subnav_NBA_Daily_Dime">Dime</a></li><li><a href="http://insider.espn.go.com/nba/features/rumors"name="&lpos=subnav&lid=subnav_NBA_Rumors">Rumors</a></li><li><a href="http://espn.go.com/nba/lines">Odds</a></li><li><a href="http://www.stubhub.com/nba-tickets/" target="_blank" onclick="this.href=this.href+\'?gcid=C12289x522&gtkw=NBA+Sub+Nav\'" class="external" name="&lpos=subnav&lid=subnav_NBA+Tickets">Tickets</a></li>\n</ul>\n</div>\n</div>\n</div>\n</div>\n<!-- end content -->\n</div>\n<!-- end subheader -->\n\n<script>\nespn.core.init.nav();\n</script>\n<!-- begin footer -->\n<div id="footer" class="container">\n<script type="text/javascript">\r//<![CDATA[\nvar link = window.location;\nvar bugText = \'<a href="#" onclick="window.open(\\\'http://dynamic.espn.go.com/espn/bugs?url=\' + escape(link) + \'\\\', \\\'Bugs\\\',\\\'noresizable,noscrollbars,height=400,width=400\\\');">Report a Bug</a> | \';\n//]]>\n</script>\n<span style="font-weight:bold;">ESPN.com:</span> <a href="http://sports.espn.go.com/espn/news/story?page=help/index">Help</a> | <a href="http://www.espnmediazone3.com/us/category/releases/" rel="nofollow">PR Media Kit</a> | <a href="http://www.espncms.com/Advertise-on-ESPN.aspx" rel="nofollow">Advertise on ESPN.com</a> | <a href="http://www.espncms.com" rel="nofollow">Sales Media Kit</a> | <a href="http://preferences.truste.com/2.0/?type=espn&affiliateId=148" onclick="window.open(\'http://preferences.truste.com/2.0/?type=espn&affiliateId=148\',\'popup\',\'width=986,height=878,scrollbars=yes,resizable=no,toolbar=no,directories=no,location=no,menubar=no,status=no,left=0,top=0\'); return false">Interest-Based Ads</a> | <script type="text/javascript">document.write(bugText);</script><a href="http://espn.go.com/espn/corrections">Corrections</a> | <a href="http://sports.espn.go.com/espn/news/story?page=contact/index">Contact Us</a> | <a href="http://espn.go.com/espn/sitemap">Site Map</a> | <a href="http://espn.go.com/espn/news/story?page=patents">Patents</a> | <a href="http://espncareers.com">Jobs at ESPN</a> | <a href="http://corporate.disney.go.com/corporate/sourcing.html" rel="nofollow"><span style="font-weight:bold;">Supplier Information</span></a><br/>&copy;2012 ESPN Internet Ventures. <a href="http://disney.go.com/corporate/legal/terms.html" rel="nofollow">Terms of Use</a> and <a href="http://disney.go.com/corporate/privacy/pp_espn.html" rel="nofollow">Privacy Policy and Safety Information/Your California Privacy Rights</a> are applicable to you.  All rights reserved.\n\n<!--\n<a href="http://www.espnshop.com/" onClick="location.href(\'http://log.go.com/log?srvc=sz&guid=73B641A0-6660-4EFC-B8FF-9DE23E8CD9BD&drop=0&addata=3374:65:478847:65&a=1&goto=http://www.espnshop.com/\');return false">Shop</a>\n-->\n</div>\n<!-- end footer -->\n<!--[if lte IE 8]></div><![endif]-->\n</div>\n<!-- end bg-elements -->\n\n\n\n<!-- SiteCatalyst code version: H.21.3 Copyright 1997-2010 Omniture, Inc. http://www.omniture.com -->\n<script type="text/javascript">\n\tvar s_account="wdgespcom";\n\tvar omniPageName = "espn:nba:game:boxscore:310324026+-+no+at+utah";\n\t\n\tvar insiderStatus = "",\n\tanGen = "",\n\tanYear = "",\n\tanDateString = "",\n\tanLoginStatus = "",\n\tundef = \'undefined\',\n\tcallOmniture = function(){\n\t\tif (typeof anCV != "undefined"){anParseLoginBarInfo(anCV);}\n\t\ts_omni.pageName="nba:game:boxscore:310324026+-+no+at+utah";\n\t\ts_omni.server = window.location.host; // Server from the Host\n\t\ts_omni.channel = "nba";\n\t\ts_omni.prop1 = "espn";\n\t\ts_omni.prop4 = "nbaboxscore";\n\t\ts_omni.prop5 = "nba:game:boxscore";\n\t\ts_omni.prop11 = (insiderStatus !== null) ? insiderStatus + ":premium-no" : "premium-no";\n\t\ts_omni.prop17 = "en";\n\t\ts_omni.prop21 = anDateString;\n\t\ts_omni.prop22 = anGen;\n\t\ts_omni.prop25 = "basketball";\n\t\ts_omni.prop26 = "nba";\n\t\ts_omni.prop29 = anLoginStatus;\n\t\ts_omni.prop30 = "n";\n\t\ts_omni.hier1 = "nba:game:boxscore:310324026+-+no+at+utah";\n\t\ts_omni.eVar7 = anYear + ":" + anGen + ":" + anLoginStatus + ":" + s_omni.prop11 + ":";\n\t\ts_omni.eVar9 = "en";\n\t\ts_omni.eVar13 = "nba:game:boxscore:310324026+-+no+at+utah";\n\t\ts_omni.eVar19 = "basketball";\n\t\ts_omni.eVar21 = "nba";\n\t\t\n\t\tif (s_omni.prop11=="anonymous:premium-yes" || s_omni.prop11=="insider-no:premium-yes" && typeof s_omni.prop4!="undefined" &&\n\t\t\t(s_omni.prop4=="story" || s_omni.prop4=="blog")) {\n\t\t\tif (typeof s_omni.events != "undefined" && s_omni.events!="") {\n\t\t\t\ts_omni.events = s_omni.events+",event8" }\n\t\t\telse { s_omni.events="event8" }\n\t\t}\n\t\tanDebugCase = "ver_15Feb11_0_";\n\t\t/************* DO NOT ALTER ANYTHING BELOW THIS LINE ! **************/\n\t\tvar s_code=s_omni.t();\n\t\tif(s_code) {\n\t\t\t//document.write(s_code);\n\t\t\tjQuery(\'body\').append(s_code);\n\t\t}\n\t};\n\t\n\n\n\tjQuery(function($) {\n\t\t// we want to load the analytics files from the cache if possible - so, let\'s use full $.ajax() calls\n\t\t$.ajax({\n\t\t\ttype:\'GET\',\n\t\t\turl: \'http://a.espncdn.com/combiner/c?js=analytics/sOmni.js,analytics/analytics.js,analytics/zf.js,analytics/externalnielsen.js\',\n\t\t\tdataType: \'script\',\n\t\t\tcache: true,\n\t\t\tsuccess: function() {\n\t\t\t\tvar lgSrc;\n\t\t\t\tif(typeof anCV !== undef && anCV === \'\' && document.getElementById(\'form-memberarea\') != null) {\n\t\t\t\t\tlgSrc = (\'https:\' === document.location.protocol) ? \'https://r.espn.go.com/members/util/getUserInfo?cb=runOmnitureIndependently\' : \'http://sports.espn.go.com/espn/js/uniloginInLineReplace?cb=runOmnitureIndependently\';\n\t\t\t\t\t$.getScript(lgSrc); // we don\'t want this to be cached - so we\'ll use the $.getScript() method\n\t\t\t\t} else {\n\t\t\t\t\tcallOmniture();\n\t\t\t\t\tif (typeof(zf) != "undefined") zf("http://espn.zoomflow.com/zf", "ZoomFlow");\n\t\t\t\t}\n\t\t\t}\n\t\t});\n\t});\n\n</script>\n<!-- End SiteCatalyst code version: H.21. --><script>\njQuery.getScriptCache(\'http://assets.espn.go.com/prod/scripts/foresee/v7/foresee-trigger.js\');\n</script>\n<!-- dynamic logic: safecount -->\n<script src="http://content.dl-rms.com/rms/mother/508/nodetag.js"></script>\n\n<script type="text/javascript" charset="utf-8">buildOutHeadlinesForPinnedSite();</script>\n</body>\n</html>'
p4
s.